Archive member included because of file (symbol)

C:/sviluppo/ESP8266/projects/ESPWebFramework/../../SDK/esp_iot_rtos_sdk-master/lib\libmain.a(xtensa_vectors.o)
                              (call_user_start)
C:/sviluppo/ESP8266/projects/ESPWebFramework/../../SDK/esp_iot_rtos_sdk-master/lib\libmain.a(app_main.o)
                              C:/sviluppo/ESP8266/projects/ESPWebFramework/../../SDK/esp_iot_rtos_sdk-master/lib\libmain.a(xtensa_vectors.o) (user_fatal_exception_handler)
C:/sviluppo/ESP8266/projects/ESPWebFramework/../../SDK/esp_iot_rtos_sdk-master/lib\libmain.a(misc.o)
                              C:/sviluppo/ESP8266/projects/ESPWebFramework/../../SDK/esp_iot_rtos_sdk-master/lib\libmain.a(app_main.o) (os_install_putc1)
C:/sviluppo/ESP8266/projects/ESPWebFramework/../../SDK/esp_iot_rtos_sdk-master/lib\libmain.a(printf-stdarg.o)
                              C:/sviluppo/ESP8266/projects/ESPWebFramework/../../SDK/esp_iot_rtos_sdk-master/lib\libmain.a(app_main.o) (printf)
C:/sviluppo/ESP8266/projects/ESPWebFramework/../../SDK/esp_iot_rtos_sdk-master/lib\libmain.a(spi_flash.o)
                              C:/sviluppo/ESP8266/projects/ESPWebFramework/../../SDK/esp_iot_rtos_sdk-master/lib\libmain.a(app_main.o) (flashchip)
C:/sviluppo/ESP8266/projects/ESPWebFramework/../../SDK/esp_iot_rtos_sdk-master/lib\libmain.a(uart.o)
                              C:/sviluppo/ESP8266/projects/ESPWebFramework/../../SDK/esp_iot_rtos_sdk-master/lib\libmain.a(app_main.o) (uart_div_modify)
C:/sviluppo/ESP8266/projects/ESPWebFramework/../../SDK/esp_iot_rtos_sdk-master/lib\libmain.a(user_interface.o)
                              C:/sviluppo/ESP8266/projects/ESPWebFramework/../../SDK/esp_iot_rtos_sdk-master/lib\libmain.a(app_main.o) (system_restart)
C:/sviluppo/ESP8266/projects/ESPWebFramework/../../SDK/esp_iot_rtos_sdk-master/lib\libmain.a(os_cpu_a.o)
                              C:/sviluppo/ESP8266/projects/ESPWebFramework/../../SDK/esp_iot_rtos_sdk-master/lib\libmain.a(xtensa_vectors.o) (_xt_int_enter)
C:/sviluppo/ESP8266/projects/ESPWebFramework/../../SDK/esp_iot_rtos_sdk-master/lib\libmain.a(xtensa_context.o)
                              C:/sviluppo/ESP8266/projects/ESPWebFramework/../../SDK/esp_iot_rtos_sdk-master/lib\libmain.a(os_cpu_a.o) (_xt_context_save)
C:/sviluppo/ESP8266/projects/ESPWebFramework/../../SDK/esp_iot_rtos_sdk-master/lib\libmain.a(timers.o)
                              C:/sviluppo/ESP8266/projects/ESPWebFramework/../../SDK/esp_iot_rtos_sdk-master/lib\libmain.a(user_interface.o) (os_timer_setfn)
C:/sviluppo/ESP8266/projects/ESPWebFramework/../../SDK/esp_iot_rtos_sdk-master/lib\libfreertos.a(heap_4.o)
                              C:/sviluppo/ESP8266/projects/ESPWebFramework/../../SDK/esp_iot_rtos_sdk-master/lib\libmain.a(timers.o) (pvPortMalloc)
C:/sviluppo/ESP8266/projects/ESPWebFramework/../../SDK/esp_iot_rtos_sdk-master/lib\libfreertos.a(port.o)
                              C:/sviluppo/ESP8266/projects/ESPWebFramework/../../SDK/esp_iot_rtos_sdk-master/lib\libmain.a(spi_flash.o) (vPortEnterCritical)
C:/sviluppo/ESP8266/projects/ESPWebFramework/../../SDK/esp_iot_rtos_sdk-master/lib\libfreertos.a(queue.o)
                              C:/sviluppo/ESP8266/projects/ESPWebFramework/../../SDK/esp_iot_rtos_sdk-master/lib\libmain.a(app_main.o) (xQueueGenericCreate)
C:/sviluppo/ESP8266/projects/ESPWebFramework/../../SDK/esp_iot_rtos_sdk-master/lib\libfreertos.a(tasks.o)
                              C:/sviluppo/ESP8266/projects/ESPWebFramework/../../SDK/esp_iot_rtos_sdk-master/lib\libmain.a(os_cpu_a.o) (pxCurrentTCB)
C:/sviluppo/ESP8266/projects/ESPWebFramework/../../SDK/esp_iot_rtos_sdk-master/lib\libfreertos.a(timers.o)
                              C:/sviluppo/ESP8266/projects/ESPWebFramework/../../SDK/esp_iot_rtos_sdk-master/lib\libfreertos.a(tasks.o) (xTimerCreateTimerTask)
C:/sviluppo/ESP8266/projects/ESPWebFramework/../../SDK/esp_iot_rtos_sdk-master/lib\libfreertos.a(list.o)
                              C:/sviluppo/ESP8266/projects/ESPWebFramework/../../SDK/esp_iot_rtos_sdk-master/lib\libfreertos.a(queue.o) (vListInitialise)
C:/sviluppo/ESP8266/projects/ESPWebFramework/../../SDK/esp_iot_rtos_sdk-master/lib\liblwip.a(dhcp.o)
                              C:/sviluppo/ESP8266/projects/ESPWebFramework/../../SDK/esp_iot_rtos_sdk-master/lib\libmain.a(user_interface.o) (dhcp_start)
C:/sviluppo/ESP8266/projects/ESPWebFramework/../../SDK/esp_iot_rtos_sdk-master/lib\liblwip.a(dns.o)
                              C:/sviluppo/ESP8266/projects/ESPWebFramework/../../SDK/esp_iot_rtos_sdk-master/lib\liblwip.a(dhcp.o) (dns_setserver)
C:/sviluppo/ESP8266/projects/ESPWebFramework/../../SDK/esp_iot_rtos_sdk-master/lib\liblwip.a(etharp.o)
                              C:/sviluppo/ESP8266/projects/ESPWebFramework/../../SDK/esp_iot_rtos_sdk-master/lib\liblwip.a(dhcp.o) (etharp_query)
C:/sviluppo/ESP8266/projects/ESPWebFramework/../../SDK/esp_iot_rtos_sdk-master/lib\liblwip.a(ip4_addr.o)
                              C:/sviluppo/ESP8266/projects/ESPWebFramework/../../SDK/esp_iot_rtos_sdk-master/lib\liblwip.a(dhcp.o) (ip_addr_any)
C:/sviluppo/ESP8266/projects/ESPWebFramework/../../SDK/esp_iot_rtos_sdk-master/lib\liblwip.a(ip4.o)
                              C:/sviluppo/ESP8266/projects/ESPWebFramework/../../SDK/esp_iot_rtos_sdk-master/lib\liblwip.a(etharp.o) (ip_input)
C:/sviluppo/ESP8266/projects/ESPWebFramework/../../SDK/esp_iot_rtos_sdk-master/lib\liblwip.a(ip_frag.o)
                              C:/sviluppo/ESP8266/projects/ESPWebFramework/../../SDK/esp_iot_rtos_sdk-master/lib\liblwip.a(ip4.o) (ip_reass)
C:/sviluppo/ESP8266/projects/ESPWebFramework/../../SDK/esp_iot_rtos_sdk-master/lib\liblwip.a(memp.o)
                              C:/sviluppo/ESP8266/projects/ESPWebFramework/../../SDK/esp_iot_rtos_sdk-master/lib\liblwip.a(etharp.o) (memp_sizes)
C:/sviluppo/ESP8266/projects/ESPWebFramework/../../SDK/esp_iot_rtos_sdk-master/lib\liblwip.a(netif.o)
                              C:/sviluppo/ESP8266/projects/ESPWebFramework/../../SDK/esp_iot_rtos_sdk-master/lib\liblwip.a(dhcp.o) (netif_list)
C:/sviluppo/ESP8266/projects/ESPWebFramework/../../SDK/esp_iot_rtos_sdk-master/lib\liblwip.a(pbuf.o)
                              C:/sviluppo/ESP8266/projects/ESPWebFramework/../../SDK/esp_iot_rtos_sdk-master/lib\liblwip.a(dhcp.o) (pbuf_alloc)
C:/sviluppo/ESP8266/projects/ESPWebFramework/../../SDK/esp_iot_rtos_sdk-master/lib\liblwip.a(raw.o)
                              C:/sviluppo/ESP8266/projects/ESPWebFramework/../../SDK/esp_iot_rtos_sdk-master/lib\liblwip.a(ip4.o) (raw_input)
C:/sviluppo/ESP8266/projects/ESPWebFramework/../../SDK/esp_iot_rtos_sdk-master/lib\liblwip.a(stats.o)
                              C:/sviluppo/ESP8266/projects/ESPWebFramework/../../SDK/esp_iot_rtos_sdk-master/lib\liblwip.a(etharp.o) (lwip_stats)
C:/sviluppo/ESP8266/projects/ESPWebFramework/../../SDK/esp_iot_rtos_sdk-master/lib\liblwip.a(sys_arch.o)
                              C:/sviluppo/ESP8266/projects/ESPWebFramework/../../SDK/esp_iot_rtos_sdk-master/lib\liblwip.a(pbuf.o) (sys_arch_protect)
C:/sviluppo/ESP8266/projects/ESPWebFramework/../../SDK/esp_iot_rtos_sdk-master/lib\liblwip.a(tcp_in.o)
                              C:/sviluppo/ESP8266/projects/ESPWebFramework/../../SDK/esp_iot_rtos_sdk-master/lib\liblwip.a(ip4.o) (tcp_input)
C:/sviluppo/ESP8266/projects/ESPWebFramework/../../SDK/esp_iot_rtos_sdk-master/lib\liblwip.a(tcpip.o)
                              C:/sviluppo/ESP8266/projects/ESPWebFramework/../../SDK/esp_iot_rtos_sdk-master/lib\libmain.a(app_main.o) (tcpip_init)
C:/sviluppo/ESP8266/projects/ESPWebFramework/../../SDK/esp_iot_rtos_sdk-master/lib\liblwip.a(tcp.o)
                              C:/sviluppo/ESP8266/projects/ESPWebFramework/../../SDK/esp_iot_rtos_sdk-master/lib\liblwip.a(netif.o) (tcp_active_pcbs)
C:/sviluppo/ESP8266/projects/ESPWebFramework/../../SDK/esp_iot_rtos_sdk-master/lib\liblwip.a(tcp_out.o)
                              C:/sviluppo/ESP8266/projects/ESPWebFramework/../../SDK/esp_iot_rtos_sdk-master/lib\liblwip.a(tcp.o) (tcp_send_fin)
C:/sviluppo/ESP8266/projects/ESPWebFramework/../../SDK/esp_iot_rtos_sdk-master/lib\liblwip.a(timers.o)
                              C:/sviluppo/ESP8266/projects/ESPWebFramework/../../SDK/esp_iot_rtos_sdk-master/lib\liblwip.a(tcpip.o) (sys_timeout)
C:/sviluppo/ESP8266/projects/ESPWebFramework/../../SDK/esp_iot_rtos_sdk-master/lib\liblwip.a(udp.o)
                              C:/sviluppo/ESP8266/projects/ESPWebFramework/../../SDK/esp_iot_rtos_sdk-master/lib\liblwip.a(ip4.o) (udp_input)
C:/sviluppo/ESP8266/projects/ESPWebFramework/../../SDK/esp_iot_rtos_sdk-master/lib\liblwip.a(icmp.o)
                              C:/sviluppo/ESP8266/projects/ESPWebFramework/../../SDK/esp_iot_rtos_sdk-master/lib\liblwip.a(ip4.o) (icmp_input)
C:/sviluppo/ESP8266/projects/ESPWebFramework/../../SDK/esp_iot_rtos_sdk-master/lib\liblwip.a(inet_chksum.o)
                              C:/sviluppo/ESP8266/projects/ESPWebFramework/../../SDK/esp_iot_rtos_sdk-master/lib\liblwip.a(tcp_in.o) (inet_chksum_pseudo)
C:/sviluppo/ESP8266/projects/ESPWebFramework/../../SDK/esp_iot_rtos_sdk-master/lib\liblwip.a(init.o)
                              C:/sviluppo/ESP8266/projects/ESPWebFramework/../../SDK/esp_iot_rtos_sdk-master/lib\liblwip.a(tcpip.o) (lwip_init)
C:/sviluppo/ESP8266/projects/ESPWebFramework/../../SDK/esp_iot_rtos_sdk-master/lib\liblwip.a(sockets.o)
                              C:/sviluppo/ESP8266/projects/ESPWebFramework/../../SDK/esp_iot_rtos_sdk-master/lib\liblwip.a(init.o) (lwip_socket_init)
C:/sviluppo/ESP8266/projects/ESPWebFramework/../../SDK/esp_iot_rtos_sdk-master/lib\liblwip.a(api_lib.o)
                              C:/sviluppo/ESP8266/projects/ESPWebFramework/../../SDK/esp_iot_rtos_sdk-master/lib\liblwip.a(sockets.o) (netconn_new_with_proto_and_callback)
C:/sviluppo/ESP8266/projects/ESPWebFramework/../../SDK/esp_iot_rtos_sdk-master/lib\liblwip.a(api_msg.o)
                              C:/sviluppo/ESP8266/projects/ESPWebFramework/../../SDK/esp_iot_rtos_sdk-master/lib\liblwip.a(api_lib.o) (netconn_alloc)
C:/sviluppo/ESP8266/projects/ESPWebFramework/../../SDK/esp_iot_rtos_sdk-master/lib\liblwip.a(netbuf.o)
                              C:/sviluppo/ESP8266/projects/ESPWebFramework/../../SDK/esp_iot_rtos_sdk-master/lib\liblwip.a(sockets.o) (netbuf_delete)
libuser.a(user_main.o)        C:/sviluppo/ESP8266/projects/ESPWebFramework/../../SDK/esp_iot_rtos_sdk-master/lib\libmain.a(app_main.o) (user_init)
libuser.a(fdvserial.o)        libuser.a(user_main.o) (fdv::HardwareSerial::s_serials)
libuser.a(fdvsync.o)          libuser.a(user_main.o) (fdv::DisableWatchDog())
libuser.a(fdvutils.o)         libuser.a(user_main.o) (operator new(unsigned int))
libuser.a(fdvflash.o)         libuser.a(user_main.o) (fdv::FlashAllocator::s_pos)
c:/sviluppo/esp8266/sdk/xtensa-lx106-elf/bin/../lib/gcc/xtensa-lx106-elf/4.8.2\libgcc.a(_divsi3.o)
                              C:/sviluppo/ESP8266/projects/ESPWebFramework/../../SDK/esp_iot_rtos_sdk-master/lib\liblwip.a(dhcp.o) (__divsi3)
c:/sviluppo/esp8266/sdk/xtensa-lx106-elf/bin/../lib/gcc/xtensa-lx106-elf/4.8.2\libgcc.a(_udivsi3.o)
                              C:/sviluppo/ESP8266/projects/ESPWebFramework/../../SDK/esp_iot_rtos_sdk-master/lib\libmain.a(app_main.o) (__udivsi3)
c:/sviluppo/esp8266/sdk/xtensa-lx106-elf/bin/../lib/gcc/xtensa-lx106-elf/4.8.2\libgcc.a(_umodsi3.o)
                              C:/sviluppo/ESP8266/projects/ESPWebFramework/../../SDK/esp_iot_rtos_sdk-master/lib\libmain.a(printf-stdarg.o) (__umodsi3)
c:/sviluppo/esp8266/sdk/xtensa-lx106-elf/bin/../lib/gcc/xtensa-lx106-elf/4.8.2/../../../../xtensa-lx106-elf/lib\libcirom.a(lib_a-bzero.o)
                              C:/sviluppo/ESP8266/projects/ESPWebFramework/../../SDK/esp_iot_rtos_sdk-master/lib\libmain.a(app_main.o) (bzero)
c:/sviluppo/esp8266/sdk/xtensa-lx106-elf/bin/../lib/gcc/xtensa-lx106-elf/4.8.2/../../../../xtensa-lx106-elf/lib\libcirom.a(lib_a-memcmp.o)
                              C:/sviluppo/ESP8266/projects/ESPWebFramework/../../SDK/esp_iot_rtos_sdk-master/lib\libmain.a(user_interface.o) (memcmp)
c:/sviluppo/esp8266/sdk/xtensa-lx106-elf/bin/../lib/gcc/xtensa-lx106-elf/4.8.2/../../../../xtensa-lx106-elf/lib\libcirom.a(lib_a-memcpy.o)
                              C:/sviluppo/ESP8266/projects/ESPWebFramework/../../SDK/esp_iot_rtos_sdk-master/lib\libmain.a(app_main.o) (memcpy)
c:/sviluppo/esp8266/sdk/xtensa-lx106-elf/bin/../lib/gcc/xtensa-lx106-elf/4.8.2/../../../../xtensa-lx106-elf/lib\libcirom.a(lib_a-memset.o)
                              C:/sviluppo/ESP8266/projects/ESPWebFramework/../../SDK/esp_iot_rtos_sdk-master/lib\libmain.a(user_interface.o) (memset)
c:/sviluppo/esp8266/sdk/xtensa-lx106-elf/bin/../lib/gcc/xtensa-lx106-elf/4.8.2/../../../../xtensa-lx106-elf/lib\libcirom.a(lib_a-strcmp.o)
                              C:/sviluppo/ESP8266/projects/ESPWebFramework/../../SDK/esp_iot_rtos_sdk-master/lib\liblwip.a(dns.o) (strcmp)
c:/sviluppo/esp8266/sdk/xtensa-lx106-elf/bin/../lib/gcc/xtensa-lx106-elf/4.8.2/../../../../xtensa-lx106-elf/lib\libcirom.a(lib_a-strlen.o)
                              C:/sviluppo/ESP8266/projects/ESPWebFramework/../../SDK/esp_iot_rtos_sdk-master/lib\libmain.a(user_interface.o) (strlen)
c:/sviluppo/esp8266/sdk/xtensa-lx106-elf/bin/../lib/gcc/xtensa-lx106-elf/4.8.2/../../../../xtensa-lx106-elf/lib\libcirom.a(lib_a-strncmp.o)
                              C:/sviluppo/ESP8266/projects/ESPWebFramework/../../SDK/esp_iot_rtos_sdk-master/lib\libmain.a(user_interface.o) (strncmp)
C:/sviluppo/ESP8266/projects/ESPWebFramework/../../SDK/esp_iot_rtos_sdk-master/lib\libhal.a(clock.o)
                              C:/sviluppo/ESP8266/projects/ESPWebFramework/../../SDK/esp_iot_rtos_sdk-master/lib\libmain.a(misc.o) (xthal_get_ccount)
C:/sviluppo/ESP8266/projects/ESPWebFramework/../../SDK/esp_iot_rtos_sdk-master/lib\libhal.a(int_asm--set_intset.o)
                              C:/sviluppo/ESP8266/projects/ESPWebFramework/../../SDK/esp_iot_rtos_sdk-master/lib\libfreertos.a(port.o) (xthal_set_intset)
C:/sviluppo/ESP8266/projects/ESPWebFramework/../../SDK/esp_iot_rtos_sdk-master/lib\libphy.a(phy.o)
                              C:/sviluppo/ESP8266/projects/ESPWebFramework/../../SDK/esp_iot_rtos_sdk-master/lib\libmain.a(app_main.o) (phy_enable_agc)
C:/sviluppo/ESP8266/projects/ESPWebFramework/../../SDK/esp_iot_rtos_sdk-master/lib\libphy.a(phy_chip_v6_ana.o)
                              C:/sviluppo/ESP8266/projects/ESPWebFramework/../../SDK/esp_iot_rtos_sdk-master/lib\libmain.a(user_interface.o) (test_tout)
C:/sviluppo/ESP8266/projects/ESPWebFramework/../../SDK/esp_iot_rtos_sdk-master/lib\libphy.a(phy_chip_v6.o)
                              C:/sviluppo/ESP8266/projects/ESPWebFramework/../../SDK/esp_iot_rtos_sdk-master/lib\libphy.a(phy_chip_v6_ana.o) (chip6_sleep_params)
C:/sviluppo/ESP8266/projects/ESPWebFramework/../../SDK/esp_iot_rtos_sdk-master/lib\libphy.a(phy_chip_v6_cal.o)
                              C:/sviluppo/ESP8266/projects/ESPWebFramework/../../SDK/esp_iot_rtos_sdk-master/lib\libphy.a(phy_chip_v6.o) (loop_pwctrl_pwdet_error_accum_high_power)
C:/sviluppo/ESP8266/projects/ESPWebFramework/../../SDK/esp_iot_rtos_sdk-master/lib\libphy.a(phy_chip_v6_unused.o)
                              C:/sviluppo/ESP8266/projects/ESPWebFramework/../../SDK/esp_iot_rtos_sdk-master/lib\libphy.a(phy_chip_v6.o) (chip_v6_set_sense)
C:/sviluppo/ESP8266/projects/ESPWebFramework/../../SDK/esp_iot_rtos_sdk-master/lib\libphy.a(phy_sleep.o)
                              C:/sviluppo/ESP8266/projects/ESPWebFramework/../../SDK/esp_iot_rtos_sdk-master/lib\libphy.a(phy_chip_v6.o) (pm_set_sleep_cycles)
C:/sviluppo/ESP8266/projects/ESPWebFramework/../../SDK/esp_iot_rtos_sdk-master/lib\libphy.a(phy_chip_v5_romfunc.o)
                              C:/sviluppo/ESP8266/projects/ESPWebFramework/../../SDK/esp_iot_rtos_sdk-master/lib\libphy.a(phy_chip_v6_ana.o) (g_phyFuns)
C:/sviluppo/ESP8266/projects/ESPWebFramework/../../SDK/esp_iot_rtos_sdk-master/lib\libphy.a(phy_chip_v5_ana_romfunc.o)
                              C:/sviluppo/ESP8266/projects/ESPWebFramework/../../SDK/esp_iot_rtos_sdk-master/lib\libphy.a(phy_chip_v5_romfunc.o) (rom_ana_inf_gating_en)
C:/sviluppo/ESP8266/projects/ESPWebFramework/../../SDK/esp_iot_rtos_sdk-master/lib\libphy.a(phy_chip_v5_cal_romfunc.o)
                              C:/sviluppo/ESP8266/projects/ESPWebFramework/../../SDK/esp_iot_rtos_sdk-master/lib\libphy.a(phy_chip_v5_romfunc.o) (rom_cal_tos_v50)
C:/sviluppo/ESP8266/projects/ESPWebFramework/../../SDK/esp_iot_rtos_sdk-master/lib\libpp.a(lmac.o)
                              C:/sviluppo/ESP8266/projects/ESPWebFramework/../../SDK/esp_iot_rtos_sdk-master/lib\libmain.a(app_main.o) (lmacInit)
C:/sviluppo/ESP8266/projects/ESPWebFramework/../../SDK/esp_iot_rtos_sdk-master/lib\libpp.a(pm.o)
                              C:/sviluppo/ESP8266/projects/ESPWebFramework/../../SDK/esp_iot_rtos_sdk-master/lib\libmain.a(user_interface.o) (pm_rtc_clock_cali_proc)
C:/sviluppo/ESP8266/projects/ESPWebFramework/../../SDK/esp_iot_rtos_sdk-master/lib\libpp.a(pp.o)
                              C:/sviluppo/ESP8266/projects/ESPWebFramework/../../SDK/esp_iot_rtos_sdk-master/lib\libpp.a(pm.o) (pp_enable_noise_timer)
C:/sviluppo/ESP8266/projects/ESPWebFramework/../../SDK/esp_iot_rtos_sdk-master/lib\libpp.a(rate_control.o)
                              C:/sviluppo/ESP8266/projects/ESPWebFramework/../../SDK/esp_iot_rtos_sdk-master/lib\libpp.a(lmac.o) (RC_SetBasicRate)
C:/sviluppo/ESP8266/projects/ESPWebFramework/../../SDK/esp_iot_rtos_sdk-master/lib\libpp.a(trc.o)
                              C:/sviluppo/ESP8266/projects/ESPWebFramework/../../SDK/esp_iot_rtos_sdk-master/lib\libpp.a(lmac.o) (rcUpdateTxDone)
C:/sviluppo/ESP8266/projects/ESPWebFramework/../../SDK/esp_iot_rtos_sdk-master/lib\libpp.a(wdev.o)
                              C:/sviluppo/ESP8266/projects/ESPWebFramework/../../SDK/esp_iot_rtos_sdk-master/lib\libfreertos.a(port.o) (NMIIrqIsOn)
C:/sviluppo/ESP8266/projects/ESPWebFramework/../../SDK/esp_iot_rtos_sdk-master/lib\libpp.a(esf_buf.o)
                              C:/sviluppo/ESP8266/projects/ESPWebFramework/../../SDK/esp_iot_rtos_sdk-master/lib\libpp.a(wdev.o) (esf_rx_buf_alloc)
C:/sviluppo/ESP8266/projects/ESPWebFramework/../../SDK/esp_iot_rtos_sdk-master/lib\libpp.a(if_hwctrl.o)
                              C:/sviluppo/ESP8266/projects/ESPWebFramework/../../SDK/esp_iot_rtos_sdk-master/lib\libpp.a(pm.o) (ic_get_addr)
C:/sviluppo/ESP8266/projects/ESPWebFramework/../../SDK/esp_iot_rtos_sdk-master/lib\libnet80211.a(ieee80211.o)
                              C:/sviluppo/ESP8266/projects/ESPWebFramework/../../SDK/esp_iot_rtos_sdk-master/lib\libmain.a(app_main.o) (g_ic)
C:/sviluppo/ESP8266/projects/ESPWebFramework/../../SDK/esp_iot_rtos_sdk-master/lib\libnet80211.a(ieee80211_crypto.o)
                              C:/sviluppo/ESP8266/projects/ESPWebFramework/../../SDK/esp_iot_rtos_sdk-master/lib\libnet80211.a(ieee80211.o) (ieee80211_crypto_attach)
C:/sviluppo/ESP8266/projects/ESPWebFramework/../../SDK/esp_iot_rtos_sdk-master/lib\libnet80211.a(ieee80211_ets.o)
                              C:/sviluppo/ESP8266/projects/ESPWebFramework/../../SDK/esp_iot_rtos_sdk-master/lib\libpp.a(pm.o) (ieee80211_getmgtframe)
C:/sviluppo/ESP8266/projects/ESPWebFramework/../../SDK/esp_iot_rtos_sdk-master/lib\libnet80211.a(ieee80211_hostap.o)
                              C:/sviluppo/ESP8266/projects/ESPWebFramework/../../SDK/esp_iot_rtos_sdk-master/lib\libpp.a(pp.o) (TmpSTAAPCloseAP)
C:/sviluppo/ESP8266/projects/ESPWebFramework/../../SDK/esp_iot_rtos_sdk-master/lib\libnet80211.a(ieee80211_ht.o)
                              C:/sviluppo/ESP8266/projects/ESPWebFramework/../../SDK/esp_iot_rtos_sdk-master/lib\libmain.a(user_interface.o) (ieee80211_ht_attach)
C:/sviluppo/ESP8266/projects/ESPWebFramework/../../SDK/esp_iot_rtos_sdk-master/lib\libnet80211.a(ieee80211_input.o)
                              C:/sviluppo/ESP8266/projects/ESPWebFramework/../../SDK/esp_iot_rtos_sdk-master/lib\libnet80211.a(ieee80211_hostap.o) (ieee80211_decap)
C:/sviluppo/ESP8266/projects/ESPWebFramework/../../SDK/esp_iot_rtos_sdk-master/lib\libnet80211.a(ieee80211_output.o)
                              C:/sviluppo/ESP8266/projects/ESPWebFramework/../../SDK/esp_iot_rtos_sdk-master/lib\libpp.a(pm.o) (ieee80211_send_setup)
C:/sviluppo/ESP8266/projects/ESPWebFramework/../../SDK/esp_iot_rtos_sdk-master/lib\libnet80211.a(ieee80211_phy.o)
                              C:/sviluppo/ESP8266/projects/ESPWebFramework/../../SDK/esp_iot_rtos_sdk-master/lib\libnet80211.a(ieee80211.o) (ieee80211_get_ratetable)
C:/sviluppo/ESP8266/projects/ESPWebFramework/../../SDK/esp_iot_rtos_sdk-master/lib\libnet80211.a(ieee80211_power.o)
                              C:/sviluppo/ESP8266/projects/ESPWebFramework/../../SDK/esp_iot_rtos_sdk-master/lib\libnet80211.a(ieee80211_hostap.o) (ieee80211_psq_init)
C:/sviluppo/ESP8266/projects/ESPWebFramework/../../SDK/esp_iot_rtos_sdk-master/lib\libnet80211.a(ieee80211_proto.o)
                              C:/sviluppo/ESP8266/projects/ESPWebFramework/../../SDK/esp_iot_rtos_sdk-master/lib\libpp.a(wdev.o) (ieee80211_addr_bcast)
C:/sviluppo/ESP8266/projects/ESPWebFramework/../../SDK/esp_iot_rtos_sdk-master/lib\libnet80211.a(ieee80211_scan.o)
                              C:/sviluppo/ESP8266/projects/ESPWebFramework/../../SDK/esp_iot_rtos_sdk-master/lib\libmain.a(user_interface.o) (scannum)
C:/sviluppo/ESP8266/projects/ESPWebFramework/../../SDK/esp_iot_rtos_sdk-master/lib\libnet80211.a(ieee80211_sta.o)
                              C:/sviluppo/ESP8266/projects/ESPWebFramework/../../SDK/esp_iot_rtos_sdk-master/lib\libmain.a(user_interface.o) (ieee80211_sta_new_state)
C:/sviluppo/ESP8266/projects/ESPWebFramework/../../SDK/esp_iot_rtos_sdk-master/lib\libnet80211.a(wl_chm.o)
                              C:/sviluppo/ESP8266/projects/ESPWebFramework/../../SDK/esp_iot_rtos_sdk-master/lib\libnet80211.a(ieee80211.o) (chm_init)
C:/sviluppo/ESP8266/projects/ESPWebFramework/../../SDK/esp_iot_rtos_sdk-master/lib\libnet80211.a(wl_cnx.o)
                              C:/sviluppo/ESP8266/projects/ESPWebFramework/../../SDK/esp_iot_rtos_sdk-master/lib\libmain.a(user_interface.o) (sta_con_timer)
C:/sviluppo/ESP8266/projects/ESPWebFramework/../../SDK/esp_iot_rtos_sdk-master/lib\libnet80211.a(ieee80211_action.o)
                              C:/sviluppo/ESP8266/projects/ESPWebFramework/../../SDK/esp_iot_rtos_sdk-master/lib\libnet80211.a(ieee80211_ht.o) (ieee80211_send_action_register)
C:/sviluppo/ESP8266/projects/ESPWebFramework/../../SDK/esp_iot_rtos_sdk-master/lib\libwpa.a(ap_config.o)
                              C:/sviluppo/ESP8266/projects/ESPWebFramework/../../SDK/esp_iot_rtos_sdk-master/lib\libnet80211.a(ieee80211_hostap.o) (hostapd_setup_wpa_psk)
C:/sviluppo/ESP8266/projects/ESPWebFramework/../../SDK/esp_iot_rtos_sdk-master/lib\libwpa.a(common.o)
                              C:/sviluppo/ESP8266/projects/ESPWebFramework/../../SDK/esp_iot_rtos_sdk-master/lib\libmain.a(user_interface.o) (hexstr2bin)
C:/sviluppo/ESP8266/projects/ESPWebFramework/../../SDK/esp_iot_rtos_sdk-master/lib\libwpa.a(os_xtensa.o)
                              C:/sviluppo/ESP8266/projects/ESPWebFramework/../../SDK/esp_iot_rtos_sdk-master/lib\libwpa.a(common.o) (os_get_time)
C:/sviluppo/ESP8266/projects/ESPWebFramework/../../SDK/esp_iot_rtos_sdk-master/lib\libwpa.a(sha1-pbkdf2.o)
                              C:/sviluppo/ESP8266/projects/ESPWebFramework/../../SDK/esp_iot_rtos_sdk-master/lib\libmain.a(user_interface.o) (pbkdf2_sha1)
C:/sviluppo/ESP8266/projects/ESPWebFramework/../../SDK/esp_iot_rtos_sdk-master/lib\libwpa.a(wpa_auth.o)
                              C:/sviluppo/ESP8266/projects/ESPWebFramework/../../SDK/esp_iot_rtos_sdk-master/lib\libnet80211.a(ieee80211_hostap.o) (wpa_init)
C:/sviluppo/ESP8266/projects/ESPWebFramework/../../SDK/esp_iot_rtos_sdk-master/lib\libwpa.a(wpa_auth_ie.o)
                              C:/sviluppo/ESP8266/projects/ESPWebFramework/../../SDK/esp_iot_rtos_sdk-master/lib\libwpa.a(wpa_auth.o) (wpa_auth_gen_wpa_ie)
C:/sviluppo/ESP8266/projects/ESPWebFramework/../../SDK/esp_iot_rtos_sdk-master/lib\libwpa.a(wpa.o)
                              C:/sviluppo/ESP8266/projects/ESPWebFramework/../../SDK/esp_iot_rtos_sdk-master/lib\libnet80211.a(ieee80211_sta.o) (wpa_sm_rx_eapol)
C:/sviluppo/ESP8266/projects/ESPWebFramework/../../SDK/esp_iot_rtos_sdk-master/lib\libwpa.a(wpa_common.o)
                              C:/sviluppo/ESP8266/projects/ESPWebFramework/../../SDK/esp_iot_rtos_sdk-master/lib\libwpa.a(wpa_auth_ie.o) (wpa_parse_wpa_ie_rsn)
C:/sviluppo/ESP8266/projects/ESPWebFramework/../../SDK/esp_iot_rtos_sdk-master/lib\libwpa.a(wpa_debug.o)
                              C:/sviluppo/ESP8266/projects/ESPWebFramework/../../SDK/esp_iot_rtos_sdk-master/lib\libwpa.a(wpa_auth.o) (eloop_cancel_timeout)
C:/sviluppo/ESP8266/projects/ESPWebFramework/../../SDK/esp_iot_rtos_sdk-master/lib\libwpa.a(wpa_ie.o)
                              C:/sviluppo/ESP8266/projects/ESPWebFramework/../../SDK/esp_iot_rtos_sdk-master/lib\libnet80211.a(ieee80211_scan.o) (wpa_parse_wpa_ie)
C:/sviluppo/ESP8266/projects/ESPWebFramework/../../SDK/esp_iot_rtos_sdk-master/lib\libwpa.a(wpa_main.o)
                              C:/sviluppo/ESP8266/projects/ESPWebFramework/../../SDK/esp_iot_rtos_sdk-master/lib\libnet80211.a(wl_cnx.o) (ppInstallKey)
C:/sviluppo/ESP8266/projects/ESPWebFramework/../../SDK/esp_iot_rtos_sdk-master/lib\libwpa.a(wpas_glue.o)
                              C:/sviluppo/ESP8266/projects/ESPWebFramework/../../SDK/esp_iot_rtos_sdk-master/lib\libwpa.a(wpa.o) (wpa_sm_alloc_eapol)
C:/sviluppo/ESP8266/projects/ESPWebFramework/../../SDK/esp_iot_rtos_sdk-master/lib\libwpa.a(aes-unwrap.o)
                              C:/sviluppo/ESP8266/projects/ESPWebFramework/../../SDK/esp_iot_rtos_sdk-master/lib\libwpa.a(wpa.o) (aes_unwrap)
C:/sviluppo/ESP8266/projects/ESPWebFramework/../../SDK/esp_iot_rtos_sdk-master/lib\libwpa.a(aes-wrap.o)
                              C:/sviluppo/ESP8266/projects/ESPWebFramework/../../SDK/esp_iot_rtos_sdk-master/lib\libwpa.a(wpa_auth.o) (aes_wrap)
C:/sviluppo/ESP8266/projects/ESPWebFramework/../../SDK/esp_iot_rtos_sdk-master/lib\libwpa.a(md5.o)
                              C:/sviluppo/ESP8266/projects/ESPWebFramework/../../SDK/esp_iot_rtos_sdk-master/lib\libwpa.a(wpa_common.o) (hmac_md5)
C:/sviluppo/ESP8266/projects/ESPWebFramework/../../SDK/esp_iot_rtos_sdk-master/lib\libwpa.a(md5-internal.o)
                              C:/sviluppo/ESP8266/projects/ESPWebFramework/../../SDK/esp_iot_rtos_sdk-master/lib\libwpa.a(md5.o) (md5_vector)
C:/sviluppo/ESP8266/projects/ESPWebFramework/../../SDK/esp_iot_rtos_sdk-master/lib\libwpa.a(rc4.o)
                              C:/sviluppo/ESP8266/projects/ESPWebFramework/../../SDK/esp_iot_rtos_sdk-master/lib\libwpa.a(wpa_auth.o) (rc4_skip)
C:/sviluppo/ESP8266/projects/ESPWebFramework/../../SDK/esp_iot_rtos_sdk-master/lib\libwpa.a(sha1.o)
                              C:/sviluppo/ESP8266/projects/ESPWebFramework/../../SDK/esp_iot_rtos_sdk-master/lib\libwpa.a(sha1-pbkdf2.o) (hmac_sha1_vector)
C:/sviluppo/ESP8266/projects/ESPWebFramework/../../SDK/esp_iot_rtos_sdk-master/lib\libwpa.a(sha1-internal.o)
                              C:/sviluppo/ESP8266/projects/ESPWebFramework/../../SDK/esp_iot_rtos_sdk-master/lib\libwpa.a(sha1.o) (sha1_vector)
C:/sviluppo/ESP8266/projects/ESPWebFramework/../../SDK/esp_iot_rtos_sdk-master/lib\libwpa.a(aes-internal-dec.o)
                              C:/sviluppo/ESP8266/projects/ESPWebFramework/../../SDK/esp_iot_rtos_sdk-master/lib\libwpa.a(aes-unwrap.o) (aes_decrypt_init)
C:/sviluppo/ESP8266/projects/ESPWebFramework/../../SDK/esp_iot_rtos_sdk-master/lib\libwpa.a(aes-internal-enc.o)
                              C:/sviluppo/ESP8266/projects/ESPWebFramework/../../SDK/esp_iot_rtos_sdk-master/lib\libwpa.a(aes-wrap.o) (aes_encrypt_init)
C:/sviluppo/ESP8266/projects/ESPWebFramework/../../SDK/esp_iot_rtos_sdk-master/lib\libwpa.a(aes-internal.o)
                              C:/sviluppo/ESP8266/projects/ESPWebFramework/../../SDK/esp_iot_rtos_sdk-master/lib\libwpa.a(aes-internal-dec.o) (Te0)
C:/sviluppo/ESP8266/projects/ESPWebFramework/../../SDK/esp_iot_rtos_sdk-master/lib\libmain.a(libc.o)
                              C:/sviluppo/ESP8266/projects/ESPWebFramework/../../SDK/esp_iot_rtos_sdk-master/lib\libwpa.a(common.o) (strrchr)
C:/sviluppo/ESP8266/projects/ESPWebFramework/../../SDK/esp_iot_rtos_sdk-master/lib\liblwip.a(ethernetif.o)
                              C:/sviluppo/ESP8266/projects/ESPWebFramework/../../SDK/esp_iot_rtos_sdk-master/lib\libnet80211.a(ieee80211_hostap.o) (ethernetif_input)
c:/sviluppo/esp8266/sdk/xtensa-lx106-elf/bin/../lib/gcc/xtensa-lx106-elf/4.8.2\libgcc.a(_modsi3.o)
                              C:/sviluppo/ESP8266/projects/ESPWebFramework/../../SDK/esp_iot_rtos_sdk-master/lib\libphy.a(phy_chip_v6.o) (__modsi3)
c:/sviluppo/esp8266/sdk/xtensa-lx106-elf/bin/../lib/gcc/xtensa-lx106-elf/4.8.2\libgcc.a(_ashrdi3.o)
                              C:/sviluppo/ESP8266/projects/ESPWebFramework/../../SDK/esp_iot_rtos_sdk-master/lib\libphy.a(phy_chip_v6.o) (__ashrdi3)
c:/sviluppo/esp8266/sdk/xtensa-lx106-elf/bin/../lib/gcc/xtensa-lx106-elf/4.8.2\libgcc.a(_addsubsf3.o)
                              C:/sviluppo/ESP8266/projects/ESPWebFramework/../../SDK/esp_iot_rtos_sdk-master/lib\libphy.a(phy_chip_v6_ana.o) (__addsf3)
c:/sviluppo/esp8266/sdk/xtensa-lx106-elf/bin/../lib/gcc/xtensa-lx106-elf/4.8.2\libgcc.a(_mulsf3.o)
                              C:/sviluppo/ESP8266/projects/ESPWebFramework/../../SDK/esp_iot_rtos_sdk-master/lib\libphy.a(phy_chip_v6_ana.o) (__mulsf3)
c:/sviluppo/esp8266/sdk/xtensa-lx106-elf/bin/../lib/gcc/xtensa-lx106-elf/4.8.2\libgcc.a(_divsf3.o)
                              C:/sviluppo/ESP8266/projects/ESPWebFramework/../../SDK/esp_iot_rtos_sdk-master/lib\libphy.a(phy_chip_v6_ana.o) (__divsf3)
c:/sviluppo/esp8266/sdk/xtensa-lx106-elf/bin/../lib/gcc/xtensa-lx106-elf/4.8.2\libgcc.a(_fixsfsi.o)
                              C:/sviluppo/ESP8266/projects/ESPWebFramework/../../SDK/esp_iot_rtos_sdk-master/lib\libphy.a(phy_chip_v6.o) (__fixsfsi)
c:/sviluppo/esp8266/sdk/xtensa-lx106-elf/bin/../lib/gcc/xtensa-lx106-elf/4.8.2\libgcc.a(_fixunssfsi.o)
                              C:/sviluppo/ESP8266/projects/ESPWebFramework/../../SDK/esp_iot_rtos_sdk-master/lib\libphy.a(phy_chip_v6_ana.o) (__fixunssfsi)
c:/sviluppo/esp8266/sdk/xtensa-lx106-elf/bin/../lib/gcc/xtensa-lx106-elf/4.8.2\libgcc.a(_floatsisf.o)
                              C:/sviluppo/ESP8266/projects/ESPWebFramework/../../SDK/esp_iot_rtos_sdk-master/lib\libphy.a(phy_chip_v6.o) (__floatunsisf)
c:/sviluppo/esp8266/sdk/xtensa-lx106-elf/bin/../lib/gcc/xtensa-lx106-elf/4.8.2\libgcc.a(_addsubdf3.o)
                              C:/sviluppo/ESP8266/projects/ESPWebFramework/../../SDK/esp_iot_rtos_sdk-master/lib\libphy.a(phy_chip_v5_ana_romfunc.o) (__adddf3)
c:/sviluppo/esp8266/sdk/xtensa-lx106-elf/bin/../lib/gcc/xtensa-lx106-elf/4.8.2\libgcc.a(_muldf3.o)
                              C:/sviluppo/ESP8266/projects/ESPWebFramework/../../SDK/esp_iot_rtos_sdk-master/lib\libphy.a(phy_chip_v6.o) (__muldf3)
c:/sviluppo/esp8266/sdk/xtensa-lx106-elf/bin/../lib/gcc/xtensa-lx106-elf/4.8.2\libgcc.a(_divdf3.o)
                              C:/sviluppo/ESP8266/projects/ESPWebFramework/../../SDK/esp_iot_rtos_sdk-master/lib\libphy.a(phy_chip_v6_ana.o) (__divdf3)
c:/sviluppo/esp8266/sdk/xtensa-lx106-elf/bin/../lib/gcc/xtensa-lx106-elf/4.8.2\libgcc.a(_fixdfsi.o)
                              C:/sviluppo/ESP8266/projects/ESPWebFramework/../../SDK/esp_iot_rtos_sdk-master/lib\libphy.a(phy_chip_v6.o) (__fixdfsi)
c:/sviluppo/esp8266/sdk/xtensa-lx106-elf/bin/../lib/gcc/xtensa-lx106-elf/4.8.2\libgcc.a(_floatsidf.o)
                              C:/sviluppo/ESP8266/projects/ESPWebFramework/../../SDK/esp_iot_rtos_sdk-master/lib\libphy.a(phy_chip_v6_ana.o) (__floatunsidf)
c:/sviluppo/esp8266/sdk/xtensa-lx106-elf/bin/../lib/gcc/xtensa-lx106-elf/4.8.2\libgcc.a(_truncdfsf2.o)
                              C:/sviluppo/ESP8266/projects/ESPWebFramework/../../SDK/esp_iot_rtos_sdk-master/lib\libphy.a(phy_chip_v6_ana.o) (__truncdfsf2)
c:/sviluppo/esp8266/sdk/xtensa-lx106-elf/bin/../lib/gcc/xtensa-lx106-elf/4.8.2\libgcc.a(_extendsfdf2.o)
                              C:/sviluppo/ESP8266/projects/ESPWebFramework/../../SDK/esp_iot_rtos_sdk-master/lib\libphy.a(phy_chip_v5_ana_romfunc.o) (__extendsfdf2)
c:/sviluppo/esp8266/sdk/xtensa-lx106-elf/bin/../lib/gcc/xtensa-lx106-elf/4.8.2\libgcc.a(_muldi3.o)
                              C:/sviluppo/ESP8266/projects/ESPWebFramework/../../SDK/esp_iot_rtos_sdk-master/lib\libphy.a(phy_chip_v6.o) (__muldi3)
c:/sviluppo/esp8266/sdk/xtensa-lx106-elf/bin/../lib/gcc/xtensa-lx106-elf/4.8.2\libgcc.a(_popcountsi2.o)
                              C:/sviluppo/ESP8266/projects/ESPWebFramework/../../SDK/esp_iot_rtos_sdk-master/lib\libpp.a(trc.o) (__popcountsi2)
c:/sviluppo/esp8266/sdk/xtensa-lx106-elf/bin/../lib/gcc/xtensa-lx106-elf/4.8.2\libgcc.a(_divdi3.o)
                              C:/sviluppo/ESP8266/projects/ESPWebFramework/../../SDK/esp_iot_rtos_sdk-master/lib\libphy.a(phy_chip_v6_cal.o) (__divdi3)
c:/sviluppo/esp8266/sdk/xtensa-lx106-elf/bin/../lib/gcc/xtensa-lx106-elf/4.8.2\libgcc.a(_umoddi3.o)
                              C:/sviluppo/ESP8266/projects/ESPWebFramework/../../SDK/esp_iot_rtos_sdk-master/lib\libpp.a(pm.o) (__umoddi3)
c:/sviluppo/esp8266/sdk/xtensa-lx106-elf/bin/../lib/gcc/xtensa-lx106-elf/4.8.2\libgcc.a(_umulsidi3.o)
                              c:/sviluppo/esp8266/sdk/xtensa-lx106-elf/bin/../lib/gcc/xtensa-lx106-elf/4.8.2\libgcc.a(_muldi3.o) (__umulsidi3)
c:/sviluppo/esp8266/sdk/xtensa-lx106-elf/bin/../lib/gcc/xtensa-lx106-elf/4.8.2\libgcc.a(_popcount_tab.o)
                              c:/sviluppo/esp8266/sdk/xtensa-lx106-elf/bin/../lib/gcc/xtensa-lx106-elf/4.8.2\libgcc.a(_popcountsi2.o) (__popcount_tab)
c:/sviluppo/esp8266/sdk/xtensa-lx106-elf/bin/../lib/gcc/xtensa-lx106-elf/4.8.2/../../../../xtensa-lx106-elf/lib\libcirom.a(lib_a-strncpy.o)
                              C:/sviluppo/ESP8266/projects/ESPWebFramework/../../SDK/esp_iot_rtos_sdk-master/lib\libnet80211.a(ieee80211_scan.o) (strncpy)
C:/sviluppo/ESP8266/projects/ESPWebFramework/../../SDK/esp_iot_rtos_sdk-master/lib\libnet80211.a(ieee80211_crypto_ccmp.o)
                              C:/sviluppo/ESP8266/projects/ESPWebFramework/../../SDK/esp_iot_rtos_sdk-master/lib\libwpa.a(wpa_auth.o) (ccmp)
C:/sviluppo/ESP8266/projects/ESPWebFramework/../../SDK/esp_iot_rtos_sdk-master/lib\libnet80211.a(ieee80211_crypto_tkip.o)
                              C:/sviluppo/ESP8266/projects/ESPWebFramework/../../SDK/esp_iot_rtos_sdk-master/lib\libwpa.a(wpa_auth.o) (tkip)
C:/sviluppo/ESP8266/projects/ESPWebFramework/../../SDK/esp_iot_rtos_sdk-master/lib\libnet80211.a(ieee80211_crypto_wep.o)
                              C:/sviluppo/ESP8266/projects/ESPWebFramework/../../SDK/esp_iot_rtos_sdk-master/lib\libwpa.a(wpa_auth.o) (wep)

Discarded input sections

 .UserEnter.literal
                0x0000000000000000        0x0 C:/sviluppo/ESP8266/projects/ESPWebFramework/../../SDK/esp_iot_rtos_sdk-master/lib\libmain.a(xtensa_vectors.o)
 .DebugExceptionVector.literal
                0x0000000000000000        0x0 C:/sviluppo/ESP8266/projects/ESPWebFramework/../../SDK/esp_iot_rtos_sdk-master/lib\libmain.a(xtensa_vectors.o)
 .DoubleExceptionVector.literal
                0x0000000000000000        0x0 C:/sviluppo/ESP8266/projects/ESPWebFramework/../../SDK/esp_iot_rtos_sdk-master/lib\libmain.a(xtensa_vectors.o)
 .KernelExceptionVector.literal
                0x0000000000000000        0x0 C:/sviluppo/ESP8266/projects/ESPWebFramework/../../SDK/esp_iot_rtos_sdk-master/lib\libmain.a(xtensa_vectors.o)
 .literal       0x0000000000000000        0x0 C:/sviluppo/ESP8266/projects/ESPWebFramework/../../SDK/esp_iot_rtos_sdk-master/lib\libmain.a(xtensa_vectors.o)
 .UserExceptionVector.literal
                0x0000000000000000        0x0 C:/sviluppo/ESP8266/projects/ESPWebFramework/../../SDK/esp_iot_rtos_sdk-master/lib\libmain.a(xtensa_vectors.o)
 .NMIExceptionVector.literal
                0x0000000000000000        0x0 C:/sviluppo/ESP8266/projects/ESPWebFramework/../../SDK/esp_iot_rtos_sdk-master/lib\libmain.a(xtensa_vectors.o)
 .rodata        0x0000000000000000       0x3b C:/sviluppo/ESP8266/projects/ESPWebFramework/../../SDK/esp_iot_rtos_sdk-master/lib\libmain.a(xtensa_vectors.o)
 .xt.lit        0x0000000000000000       0x40 C:/sviluppo/ESP8266/projects/ESPWebFramework/../../SDK/esp_iot_rtos_sdk-master/lib\libmain.a(xtensa_vectors.o)
 .xt.prop       0x0000000000000000      0x18c C:/sviluppo/ESP8266/projects/ESPWebFramework/../../SDK/esp_iot_rtos_sdk-master/lib\libmain.a(xtensa_vectors.o)
 .irom0.literal
                0x0000000000000000        0x0 C:/sviluppo/ESP8266/projects/ESPWebFramework/../../SDK/esp_iot_rtos_sdk-master/lib\libmain.a(app_main.o)
 .literal       0x0000000000000000        0x0 C:/sviluppo/ESP8266/projects/ESPWebFramework/../../SDK/esp_iot_rtos_sdk-master/lib\libmain.a(app_main.o)
 .xt.lit        0x0000000000000000       0x90 C:/sviluppo/ESP8266/projects/ESPWebFramework/../../SDK/esp_iot_rtos_sdk-master/lib\libmain.a(app_main.o)
 .xt.prop       0x0000000000000000      0x594 C:/sviluppo/ESP8266/projects/ESPWebFramework/../../SDK/esp_iot_rtos_sdk-master/lib\libmain.a(app_main.o)
 .irom0.literal
                0x0000000000000000        0x0 C:/sviluppo/ESP8266/projects/ESPWebFramework/../../SDK/esp_iot_rtos_sdk-master/lib\libmain.a(misc.o)
 .literal       0x0000000000000000        0x0 C:/sviluppo/ESP8266/projects/ESPWebFramework/../../SDK/esp_iot_rtos_sdk-master/lib\libmain.a(misc.o)
 .text          0x0000000000000000        0xb C:/sviluppo/ESP8266/projects/ESPWebFramework/../../SDK/esp_iot_rtos_sdk-master/lib\libmain.a(misc.o)
 .xt.lit        0x0000000000000000       0x38 C:/sviluppo/ESP8266/projects/ESPWebFramework/../../SDK/esp_iot_rtos_sdk-master/lib\libmain.a(misc.o)
 .xt.prop       0x0000000000000000      0x138 C:/sviluppo/ESP8266/projects/ESPWebFramework/../../SDK/esp_iot_rtos_sdk-master/lib\libmain.a(misc.o)
 .literal       0x0000000000000000        0x0 C:/sviluppo/ESP8266/projects/ESPWebFramework/../../SDK/esp_iot_rtos_sdk-master/lib\libmain.a(printf-stdarg.o)
 .data          0x0000000000000000        0x0 C:/sviluppo/ESP8266/projects/ESPWebFramework/../../SDK/esp_iot_rtos_sdk-master/lib\libmain.a(printf-stdarg.o)
 .bss           0x0000000000000000        0x0 C:/sviluppo/ESP8266/projects/ESPWebFramework/../../SDK/esp_iot_rtos_sdk-master/lib\libmain.a(printf-stdarg.o)
 .xt.lit        0x0000000000000000       0x28 C:/sviluppo/ESP8266/projects/ESPWebFramework/../../SDK/esp_iot_rtos_sdk-master/lib\libmain.a(printf-stdarg.o)
 .xt.prop       0x0000000000000000      0x4d4 C:/sviluppo/ESP8266/projects/ESPWebFramework/../../SDK/esp_iot_rtos_sdk-master/lib\libmain.a(printf-stdarg.o)
 .literal       0x0000000000000000        0x0 C:/sviluppo/ESP8266/projects/ESPWebFramework/../../SDK/esp_iot_rtos_sdk-master/lib\libmain.a(spi_flash.o)
 .bss           0x0000000000000000        0x0 C:/sviluppo/ESP8266/projects/ESPWebFramework/../../SDK/esp_iot_rtos_sdk-master/lib\libmain.a(spi_flash.o)
 .xt.lit        0x0000000000000000       0x40 C:/sviluppo/ESP8266/projects/ESPWebFramework/../../SDK/esp_iot_rtos_sdk-master/lib\libmain.a(spi_flash.o)
 .xt.prop       0x0000000000000000      0x264 C:/sviluppo/ESP8266/projects/ESPWebFramework/../../SDK/esp_iot_rtos_sdk-master/lib\libmain.a(spi_flash.o)
 .irom0.literal
                0x0000000000000000        0x0 C:/sviluppo/ESP8266/projects/ESPWebFramework/../../SDK/esp_iot_rtos_sdk-master/lib\libmain.a(uart.o)
 .text          0x0000000000000000        0x0 C:/sviluppo/ESP8266/projects/ESPWebFramework/../../SDK/esp_iot_rtos_sdk-master/lib\libmain.a(uart.o)
 .data          0x0000000000000000        0x0 C:/sviluppo/ESP8266/projects/ESPWebFramework/../../SDK/esp_iot_rtos_sdk-master/lib\libmain.a(uart.o)
 .bss           0x0000000000000000        0x0 C:/sviluppo/ESP8266/projects/ESPWebFramework/../../SDK/esp_iot_rtos_sdk-master/lib\libmain.a(uart.o)
 .xt.lit        0x0000000000000000        0x8 C:/sviluppo/ESP8266/projects/ESPWebFramework/../../SDK/esp_iot_rtos_sdk-master/lib\libmain.a(uart.o)
 .xt.prop       0x0000000000000000       0x6c C:/sviluppo/ESP8266/projects/ESPWebFramework/../../SDK/esp_iot_rtos_sdk-master/lib\libmain.a(uart.o)
 .irom0.literal
                0x0000000000000000        0x0 C:/sviluppo/ESP8266/projects/ESPWebFramework/../../SDK/esp_iot_rtos_sdk-master/lib\libmain.a(user_interface.o)
 .literal       0x0000000000000000        0x0 C:/sviluppo/ESP8266/projects/ESPWebFramework/../../SDK/esp_iot_rtos_sdk-master/lib\libmain.a(user_interface.o)
 .text          0x0000000000000000      0x10c C:/sviluppo/ESP8266/projects/ESPWebFramework/../../SDK/esp_iot_rtos_sdk-master/lib\libmain.a(user_interface.o)
 .xt.lit        0x0000000000000000      0x1e8 C:/sviluppo/ESP8266/projects/ESPWebFramework/../../SDK/esp_iot_rtos_sdk-master/lib\libmain.a(user_interface.o)
 .xt.prop       0x0000000000000000     0x1398 C:/sviluppo/ESP8266/projects/ESPWebFramework/../../SDK/esp_iot_rtos_sdk-master/lib\libmain.a(user_interface.o)
 .literal       0x0000000000000000        0x0 C:/sviluppo/ESP8266/projects/ESPWebFramework/../../SDK/esp_iot_rtos_sdk-master/lib\libmain.a(os_cpu_a.o)
 .data          0x0000000000000000        0x0 C:/sviluppo/ESP8266/projects/ESPWebFramework/../../SDK/esp_iot_rtos_sdk-master/lib\libmain.a(os_cpu_a.o)
 .bss           0x0000000000000000        0x0 C:/sviluppo/ESP8266/projects/ESPWebFramework/../../SDK/esp_iot_rtos_sdk-master/lib\libmain.a(os_cpu_a.o)
 .xt.lit        0x0000000000000000       0x10 C:/sviluppo/ESP8266/projects/ESPWebFramework/../../SDK/esp_iot_rtos_sdk-master/lib\libmain.a(os_cpu_a.o)
 .xt.prop       0x0000000000000000      0x114 C:/sviluppo/ESP8266/projects/ESPWebFramework/../../SDK/esp_iot_rtos_sdk-master/lib\libmain.a(os_cpu_a.o)
 .data          0x0000000000000000        0x0 C:/sviluppo/ESP8266/projects/ESPWebFramework/../../SDK/esp_iot_rtos_sdk-master/lib\libmain.a(xtensa_context.o)
 .bss           0x0000000000000000        0x0 C:/sviluppo/ESP8266/projects/ESPWebFramework/../../SDK/esp_iot_rtos_sdk-master/lib\libmain.a(xtensa_context.o)
 .xt.prop       0x0000000000000000       0x30 C:/sviluppo/ESP8266/projects/ESPWebFramework/../../SDK/esp_iot_rtos_sdk-master/lib\libmain.a(xtensa_context.o)
 .irom0.literal
                0x0000000000000000        0x0 C:/sviluppo/ESP8266/projects/ESPWebFramework/../../SDK/esp_iot_rtos_sdk-master/lib\libmain.a(timers.o)
 .text          0x0000000000000000        0x0 C:/sviluppo/ESP8266/projects/ESPWebFramework/../../SDK/esp_iot_rtos_sdk-master/lib\libmain.a(timers.o)
 .data          0x0000000000000000        0x0 C:/sviluppo/ESP8266/projects/ESPWebFramework/../../SDK/esp_iot_rtos_sdk-master/lib\libmain.a(timers.o)
 .xt.lit        0x0000000000000000       0x18 C:/sviluppo/ESP8266/projects/ESPWebFramework/../../SDK/esp_iot_rtos_sdk-master/lib\libmain.a(timers.o)
 .xt.prop       0x0000000000000000      0x108 C:/sviluppo/ESP8266/projects/ESPWebFramework/../../SDK/esp_iot_rtos_sdk-master/lib\libmain.a(timers.o)
 .literal       0x0000000000000000        0x0 C:/sviluppo/ESP8266/projects/ESPWebFramework/../../SDK/esp_iot_rtos_sdk-master/lib\libfreertos.a(heap_4.o)
 .data          0x0000000000000000        0x0 C:/sviluppo/ESP8266/projects/ESPWebFramework/../../SDK/esp_iot_rtos_sdk-master/lib\libfreertos.a(heap_4.o)
 .xt.lit        0x0000000000000000       0x38 C:/sviluppo/ESP8266/projects/ESPWebFramework/../../SDK/esp_iot_rtos_sdk-master/lib\libfreertos.a(heap_4.o)
 .xt.prop       0x0000000000000000      0x270 C:/sviluppo/ESP8266/projects/ESPWebFramework/../../SDK/esp_iot_rtos_sdk-master/lib\libfreertos.a(heap_4.o)
 .irom0.literal
                0x0000000000000000        0x0 C:/sviluppo/ESP8266/projects/ESPWebFramework/../../SDK/esp_iot_rtos_sdk-master/lib\libfreertos.a(port.o)
 .literal       0x0000000000000000        0x0 C:/sviluppo/ESP8266/projects/ESPWebFramework/../../SDK/esp_iot_rtos_sdk-master/lib\libfreertos.a(port.o)
 .data          0x0000000000000000        0x0 C:/sviluppo/ESP8266/projects/ESPWebFramework/../../SDK/esp_iot_rtos_sdk-master/lib\libfreertos.a(port.o)
 .xt.lit        0x0000000000000000       0x58 C:/sviluppo/ESP8266/projects/ESPWebFramework/../../SDK/esp_iot_rtos_sdk-master/lib\libfreertos.a(port.o)
 .xt.prop       0x0000000000000000      0x2f4 C:/sviluppo/ESP8266/projects/ESPWebFramework/../../SDK/esp_iot_rtos_sdk-master/lib\libfreertos.a(port.o)
 .irom0.literal
                0x0000000000000000        0x0 C:/sviluppo/ESP8266/projects/ESPWebFramework/../../SDK/esp_iot_rtos_sdk-master/lib\libfreertos.a(queue.o)
 .text          0x0000000000000000        0x0 C:/sviluppo/ESP8266/projects/ESPWebFramework/../../SDK/esp_iot_rtos_sdk-master/lib\libfreertos.a(queue.o)
 .data          0x0000000000000000        0x0 C:/sviluppo/ESP8266/projects/ESPWebFramework/../../SDK/esp_iot_rtos_sdk-master/lib\libfreertos.a(queue.o)
 .bss           0x0000000000000000        0x0 C:/sviluppo/ESP8266/projects/ESPWebFramework/../../SDK/esp_iot_rtos_sdk-master/lib\libfreertos.a(queue.o)
 .xt.lit        0x0000000000000000       0x80 C:/sviluppo/ESP8266/projects/ESPWebFramework/../../SDK/esp_iot_rtos_sdk-master/lib\libfreertos.a(queue.o)
 .xt.prop       0x0000000000000000      0x5ac C:/sviluppo/ESP8266/projects/ESPWebFramework/../../SDK/esp_iot_rtos_sdk-master/lib\libfreertos.a(queue.o)
 .irom0.literal
                0x0000000000000000        0x0 C:/sviluppo/ESP8266/projects/ESPWebFramework/../../SDK/esp_iot_rtos_sdk-master/lib\libfreertos.a(tasks.o)
 .literal       0x0000000000000000        0x0 C:/sviluppo/ESP8266/projects/ESPWebFramework/../../SDK/esp_iot_rtos_sdk-master/lib\libfreertos.a(tasks.o)
 .xt.lit        0x0000000000000000      0x130 C:/sviluppo/ESP8266/projects/ESPWebFramework/../../SDK/esp_iot_rtos_sdk-master/lib\libfreertos.a(tasks.o)
 .xt.prop       0x0000000000000000      0xbf4 C:/sviluppo/ESP8266/projects/ESPWebFramework/../../SDK/esp_iot_rtos_sdk-master/lib\libfreertos.a(tasks.o)
 .irom0.literal
                0x0000000000000000        0x0 C:/sviluppo/ESP8266/projects/ESPWebFramework/../../SDK/esp_iot_rtos_sdk-master/lib\libfreertos.a(timers.o)
 .text          0x0000000000000000        0x0 C:/sviluppo/ESP8266/projects/ESPWebFramework/../../SDK/esp_iot_rtos_sdk-master/lib\libfreertos.a(timers.o)
 .data          0x0000000000000000        0x0 C:/sviluppo/ESP8266/projects/ESPWebFramework/../../SDK/esp_iot_rtos_sdk-master/lib\libfreertos.a(timers.o)
 .xt.lit        0x0000000000000000       0x68 C:/sviluppo/ESP8266/projects/ESPWebFramework/../../SDK/esp_iot_rtos_sdk-master/lib\libfreertos.a(timers.o)
 .xt.prop       0x0000000000000000      0x444 C:/sviluppo/ESP8266/projects/ESPWebFramework/../../SDK/esp_iot_rtos_sdk-master/lib\libfreertos.a(timers.o)
 .irom0.literal
                0x0000000000000000        0x0 C:/sviluppo/ESP8266/projects/ESPWebFramework/../../SDK/esp_iot_rtos_sdk-master/lib\libfreertos.a(list.o)
 .literal       0x0000000000000000        0x0 C:/sviluppo/ESP8266/projects/ESPWebFramework/../../SDK/esp_iot_rtos_sdk-master/lib\libfreertos.a(list.o)
 .data          0x0000000000000000        0x0 C:/sviluppo/ESP8266/projects/ESPWebFramework/../../SDK/esp_iot_rtos_sdk-master/lib\libfreertos.a(list.o)
 .bss           0x0000000000000000        0x0 C:/sviluppo/ESP8266/projects/ESPWebFramework/../../SDK/esp_iot_rtos_sdk-master/lib\libfreertos.a(list.o)
 .xt.prop       0x0000000000000000       0xd8 C:/sviluppo/ESP8266/projects/ESPWebFramework/../../SDK/esp_iot_rtos_sdk-master/lib\libfreertos.a(list.o)
 .irom0.literal
                0x0000000000000000        0x0 C:/sviluppo/ESP8266/projects/ESPWebFramework/../../SDK/esp_iot_rtos_sdk-master/lib\liblwip.a(dhcp.o)
 .text          0x0000000000000000        0x0 C:/sviluppo/ESP8266/projects/ESPWebFramework/../../SDK/esp_iot_rtos_sdk-master/lib\liblwip.a(dhcp.o)
 .xt.lit        0x0000000000000000       0xc0 C:/sviluppo/ESP8266/projects/ESPWebFramework/../../SDK/esp_iot_rtos_sdk-master/lib\liblwip.a(dhcp.o)
 .xt.prop       0x0000000000000000      0xcc0 C:/sviluppo/ESP8266/projects/ESPWebFramework/../../SDK/esp_iot_rtos_sdk-master/lib\liblwip.a(dhcp.o)
 .irom0.literal
                0x0000000000000000        0x0 C:/sviluppo/ESP8266/projects/ESPWebFramework/../../SDK/esp_iot_rtos_sdk-master/lib\liblwip.a(dns.o)
 .text          0x0000000000000000        0x0 C:/sviluppo/ESP8266/projects/ESPWebFramework/../../SDK/esp_iot_rtos_sdk-master/lib\liblwip.a(dns.o)
 .data          0x0000000000000000        0x0 C:/sviluppo/ESP8266/projects/ESPWebFramework/../../SDK/esp_iot_rtos_sdk-master/lib\liblwip.a(dns.o)
 .xt.lit        0x0000000000000000       0x50 C:/sviluppo/ESP8266/projects/ESPWebFramework/../../SDK/esp_iot_rtos_sdk-master/lib\liblwip.a(dns.o)
 .xt.prop       0x0000000000000000      0x4a4 C:/sviluppo/ESP8266/projects/ESPWebFramework/../../SDK/esp_iot_rtos_sdk-master/lib\liblwip.a(dns.o)
 .irom0.literal
                0x0000000000000000        0x0 C:/sviluppo/ESP8266/projects/ESPWebFramework/../../SDK/esp_iot_rtos_sdk-master/lib\liblwip.a(etharp.o)
 .text          0x0000000000000000        0x0 C:/sviluppo/ESP8266/projects/ESPWebFramework/../../SDK/esp_iot_rtos_sdk-master/lib\liblwip.a(etharp.o)
 .data          0x0000000000000000        0x0 C:/sviluppo/ESP8266/projects/ESPWebFramework/../../SDK/esp_iot_rtos_sdk-master/lib\liblwip.a(etharp.o)
 .xt.lit        0x0000000000000000       0x78 C:/sviluppo/ESP8266/projects/ESPWebFramework/../../SDK/esp_iot_rtos_sdk-master/lib\liblwip.a(etharp.o)
 .xt.prop       0x0000000000000000      0x6a8 C:/sviluppo/ESP8266/projects/ESPWebFramework/../../SDK/esp_iot_rtos_sdk-master/lib\liblwip.a(etharp.o)
 .irom0.literal
                0x0000000000000000        0x0 C:/sviluppo/ESP8266/projects/ESPWebFramework/../../SDK/esp_iot_rtos_sdk-master/lib\liblwip.a(ip4_addr.o)
 .text          0x0000000000000000        0x0 C:/sviluppo/ESP8266/projects/ESPWebFramework/../../SDK/esp_iot_rtos_sdk-master/lib\liblwip.a(ip4_addr.o)
 .data          0x0000000000000000        0x0 C:/sviluppo/ESP8266/projects/ESPWebFramework/../../SDK/esp_iot_rtos_sdk-master/lib\liblwip.a(ip4_addr.o)
 .xt.lit        0x0000000000000000       0x20 C:/sviluppo/ESP8266/projects/ESPWebFramework/../../SDK/esp_iot_rtos_sdk-master/lib\liblwip.a(ip4_addr.o)
 .xt.prop       0x0000000000000000      0x2c4 C:/sviluppo/ESP8266/projects/ESPWebFramework/../../SDK/esp_iot_rtos_sdk-master/lib\liblwip.a(ip4_addr.o)
 .irom0.literal
                0x0000000000000000        0x0 C:/sviluppo/ESP8266/projects/ESPWebFramework/../../SDK/esp_iot_rtos_sdk-master/lib\liblwip.a(ip4.o)
 .text          0x0000000000000000        0x0 C:/sviluppo/ESP8266/projects/ESPWebFramework/../../SDK/esp_iot_rtos_sdk-master/lib\liblwip.a(ip4.o)
 .data          0x0000000000000000        0x0 C:/sviluppo/ESP8266/projects/ESPWebFramework/../../SDK/esp_iot_rtos_sdk-master/lib\liblwip.a(ip4.o)
 .xt.lit        0x0000000000000000       0x20 C:/sviluppo/ESP8266/projects/ESPWebFramework/../../SDK/esp_iot_rtos_sdk-master/lib\liblwip.a(ip4.o)
 .xt.prop       0x0000000000000000      0x2d0 C:/sviluppo/ESP8266/projects/ESPWebFramework/../../SDK/esp_iot_rtos_sdk-master/lib\liblwip.a(ip4.o)
 .irom0.literal
                0x0000000000000000        0x0 C:/sviluppo/ESP8266/projects/ESPWebFramework/../../SDK/esp_iot_rtos_sdk-master/lib\liblwip.a(ip_frag.o)
 .text          0x0000000000000000        0x0 C:/sviluppo/ESP8266/projects/ESPWebFramework/../../SDK/esp_iot_rtos_sdk-master/lib\liblwip.a(ip_frag.o)
 .data          0x0000000000000000        0x0 C:/sviluppo/ESP8266/projects/ESPWebFramework/../../SDK/esp_iot_rtos_sdk-master/lib\liblwip.a(ip_frag.o)
 .xt.lit        0x0000000000000000       0x40 C:/sviluppo/ESP8266/projects/ESPWebFramework/../../SDK/esp_iot_rtos_sdk-master/lib\liblwip.a(ip_frag.o)
 .xt.prop       0x0000000000000000      0x45c C:/sviluppo/ESP8266/projects/ESPWebFramework/../../SDK/esp_iot_rtos_sdk-master/lib\liblwip.a(ip_frag.o)
 .text          0x0000000000000000        0x0 C:/sviluppo/ESP8266/projects/ESPWebFramework/../../SDK/esp_iot_rtos_sdk-master/lib\liblwip.a(memp.o)
 .data          0x0000000000000000        0x0 C:/sviluppo/ESP8266/projects/ESPWebFramework/../../SDK/esp_iot_rtos_sdk-master/lib\liblwip.a(memp.o)
 .bss           0x0000000000000000        0x0 C:/sviluppo/ESP8266/projects/ESPWebFramework/../../SDK/esp_iot_rtos_sdk-master/lib\liblwip.a(memp.o)
 .xt.prop       0x0000000000000000        0xc C:/sviluppo/ESP8266/projects/ESPWebFramework/../../SDK/esp_iot_rtos_sdk-master/lib\liblwip.a(memp.o)
 .irom0.literal
                0x0000000000000000        0x0 C:/sviluppo/ESP8266/projects/ESPWebFramework/../../SDK/esp_iot_rtos_sdk-master/lib\liblwip.a(netif.o)
 .text          0x0000000000000000        0x0 C:/sviluppo/ESP8266/projects/ESPWebFramework/../../SDK/esp_iot_rtos_sdk-master/lib\liblwip.a(netif.o)
 .data          0x0000000000000000        0x0 C:/sviluppo/ESP8266/projects/ESPWebFramework/../../SDK/esp_iot_rtos_sdk-master/lib\liblwip.a(netif.o)
 .xt.lit        0x0000000000000000       0x40 C:/sviluppo/ESP8266/projects/ESPWebFramework/../../SDK/esp_iot_rtos_sdk-master/lib\liblwip.a(netif.o)
 .xt.prop       0x0000000000000000      0x330 C:/sviluppo/ESP8266/projects/ESPWebFramework/../../SDK/esp_iot_rtos_sdk-master/lib\liblwip.a(netif.o)
 .irom0.literal
                0x0000000000000000        0x0 C:/sviluppo/ESP8266/projects/ESPWebFramework/../../SDK/esp_iot_rtos_sdk-master/lib\liblwip.a(pbuf.o)
 .text          0x0000000000000000        0x0 C:/sviluppo/ESP8266/projects/ESPWebFramework/../../SDK/esp_iot_rtos_sdk-master/lib\liblwip.a(pbuf.o)
 .data          0x0000000000000000        0x0 C:/sviluppo/ESP8266/projects/ESPWebFramework/../../SDK/esp_iot_rtos_sdk-master/lib\liblwip.a(pbuf.o)
 .bss           0x0000000000000000        0x0 C:/sviluppo/ESP8266/projects/ESPWebFramework/../../SDK/esp_iot_rtos_sdk-master/lib\liblwip.a(pbuf.o)
 .xt.lit        0x0000000000000000       0x48 C:/sviluppo/ESP8266/projects/ESPWebFramework/../../SDK/esp_iot_rtos_sdk-master/lib\liblwip.a(pbuf.o)
 .xt.prop       0x0000000000000000      0x690 C:/sviluppo/ESP8266/projects/ESPWebFramework/../../SDK/esp_iot_rtos_sdk-master/lib\liblwip.a(pbuf.o)
 .irom0.literal
                0x0000000000000000        0x0 C:/sviluppo/ESP8266/projects/ESPWebFramework/../../SDK/esp_iot_rtos_sdk-master/lib\liblwip.a(raw.o)
 .text          0x0000000000000000        0x0 C:/sviluppo/ESP8266/projects/ESPWebFramework/../../SDK/esp_iot_rtos_sdk-master/lib\liblwip.a(raw.o)
 .data          0x0000000000000000        0x0 C:/sviluppo/ESP8266/projects/ESPWebFramework/../../SDK/esp_iot_rtos_sdk-master/lib\liblwip.a(raw.o)
 .xt.lit        0x0000000000000000       0x20 C:/sviluppo/ESP8266/projects/ESPWebFramework/../../SDK/esp_iot_rtos_sdk-master/lib\liblwip.a(raw.o)
 .xt.prop       0x0000000000000000      0x27c C:/sviluppo/ESP8266/projects/ESPWebFramework/../../SDK/esp_iot_rtos_sdk-master/lib\liblwip.a(raw.o)
 .irom0.literal
                0x0000000000000000        0x0 C:/sviluppo/ESP8266/projects/ESPWebFramework/../../SDK/esp_iot_rtos_sdk-master/lib\liblwip.a(stats.o)
 .text          0x0000000000000000        0x0 C:/sviluppo/ESP8266/projects/ESPWebFramework/../../SDK/esp_iot_rtos_sdk-master/lib\liblwip.a(stats.o)
 .data          0x0000000000000000        0x0 C:/sviluppo/ESP8266/projects/ESPWebFramework/../../SDK/esp_iot_rtos_sdk-master/lib\liblwip.a(stats.o)
 .xt.prop       0x0000000000000000       0x30 C:/sviluppo/ESP8266/projects/ESPWebFramework/../../SDK/esp_iot_rtos_sdk-master/lib\liblwip.a(stats.o)
 .irom0.literal
                0x0000000000000000        0x0 C:/sviluppo/ESP8266/projects/ESPWebFramework/../../SDK/esp_iot_rtos_sdk-master/lib\liblwip.a(sys_arch.o)
 .text          0x0000000000000000        0x0 C:/sviluppo/ESP8266/projects/ESPWebFramework/../../SDK/esp_iot_rtos_sdk-master/lib\liblwip.a(sys_arch.o)
 .data          0x0000000000000000        0x0 C:/sviluppo/ESP8266/projects/ESPWebFramework/../../SDK/esp_iot_rtos_sdk-master/lib\liblwip.a(sys_arch.o)
 .bss           0x0000000000000000        0x4 C:/sviluppo/ESP8266/projects/ESPWebFramework/../../SDK/esp_iot_rtos_sdk-master/lib\liblwip.a(sys_arch.o)
 .xt.lit        0x0000000000000000       0x98 C:/sviluppo/ESP8266/projects/ESPWebFramework/../../SDK/esp_iot_rtos_sdk-master/lib\liblwip.a(sys_arch.o)
 .xt.prop       0x0000000000000000      0x384 C:/sviluppo/ESP8266/projects/ESPWebFramework/../../SDK/esp_iot_rtos_sdk-master/lib\liblwip.a(sys_arch.o)
 .irom0.literal
                0x0000000000000000        0x0 C:/sviluppo/ESP8266/projects/ESPWebFramework/../../SDK/esp_iot_rtos_sdk-master/lib\liblwip.a(tcp_in.o)
 .text          0x0000000000000000        0x0 C:/sviluppo/ESP8266/projects/ESPWebFramework/../../SDK/esp_iot_rtos_sdk-master/lib\liblwip.a(tcp_in.o)
 .data          0x0000000000000000        0x0 C:/sviluppo/ESP8266/projects/ESPWebFramework/../../SDK/esp_iot_rtos_sdk-master/lib\liblwip.a(tcp_in.o)
 .xt.lit        0x0000000000000000       0x30 C:/sviluppo/ESP8266/projects/ESPWebFramework/../../SDK/esp_iot_rtos_sdk-master/lib\liblwip.a(tcp_in.o)
 .xt.prop       0x0000000000000000      0xa20 C:/sviluppo/ESP8266/projects/ESPWebFramework/../../SDK/esp_iot_rtos_sdk-master/lib\liblwip.a(tcp_in.o)
 .irom0.literal
                0x0000000000000000        0x0 C:/sviluppo/ESP8266/projects/ESPWebFramework/../../SDK/esp_iot_rtos_sdk-master/lib\liblwip.a(tcpip.o)
 .text          0x0000000000000000        0x0 C:/sviluppo/ESP8266/projects/ESPWebFramework/../../SDK/esp_iot_rtos_sdk-master/lib\liblwip.a(tcpip.o)
 .data          0x0000000000000000        0x0 C:/sviluppo/ESP8266/projects/ESPWebFramework/../../SDK/esp_iot_rtos_sdk-master/lib\liblwip.a(tcpip.o)
 .xt.lit        0x0000000000000000       0x68 C:/sviluppo/ESP8266/projects/ESPWebFramework/../../SDK/esp_iot_rtos_sdk-master/lib\liblwip.a(tcpip.o)
 .xt.prop       0x0000000000000000      0x3fc C:/sviluppo/ESP8266/projects/ESPWebFramework/../../SDK/esp_iot_rtos_sdk-master/lib\liblwip.a(tcpip.o)
 .irom0.literal
                0x0000000000000000        0x0 C:/sviluppo/ESP8266/projects/ESPWebFramework/../../SDK/esp_iot_rtos_sdk-master/lib\liblwip.a(tcp.o)
 .text          0x0000000000000000        0x0 C:/sviluppo/ESP8266/projects/ESPWebFramework/../../SDK/esp_iot_rtos_sdk-master/lib\liblwip.a(tcp.o)
 .xt.lit        0x0000000000000000       0xb0 C:/sviluppo/ESP8266/projects/ESPWebFramework/../../SDK/esp_iot_rtos_sdk-master/lib\liblwip.a(tcp.o)
 .xt.prop       0x0000000000000000      0xe4c C:/sviluppo/ESP8266/projects/ESPWebFramework/../../SDK/esp_iot_rtos_sdk-master/lib\liblwip.a(tcp.o)
 .irom0.literal
                0x0000000000000000        0x0 C:/sviluppo/ESP8266/projects/ESPWebFramework/../../SDK/esp_iot_rtos_sdk-master/lib\liblwip.a(tcp_out.o)
 .text          0x0000000000000000        0x0 C:/sviluppo/ESP8266/projects/ESPWebFramework/../../SDK/esp_iot_rtos_sdk-master/lib\liblwip.a(tcp_out.o)
 .data          0x0000000000000000        0x0 C:/sviluppo/ESP8266/projects/ESPWebFramework/../../SDK/esp_iot_rtos_sdk-master/lib\liblwip.a(tcp_out.o)
 .bss           0x0000000000000000        0x0 C:/sviluppo/ESP8266/projects/ESPWebFramework/../../SDK/esp_iot_rtos_sdk-master/lib\liblwip.a(tcp_out.o)
 .xt.lit        0x0000000000000000       0x70 C:/sviluppo/ESP8266/projects/ESPWebFramework/../../SDK/esp_iot_rtos_sdk-master/lib\liblwip.a(tcp_out.o)
 .xt.prop       0x0000000000000000      0x7d4 C:/sviluppo/ESP8266/projects/ESPWebFramework/../../SDK/esp_iot_rtos_sdk-master/lib\liblwip.a(tcp_out.o)
 .irom0.literal
                0x0000000000000000        0x0 C:/sviluppo/ESP8266/projects/ESPWebFramework/../../SDK/esp_iot_rtos_sdk-master/lib\liblwip.a(timers.o)
 .text          0x0000000000000000        0x0 C:/sviluppo/ESP8266/projects/ESPWebFramework/../../SDK/esp_iot_rtos_sdk-master/lib\liblwip.a(timers.o)
 .data          0x0000000000000000        0x0 C:/sviluppo/ESP8266/projects/ESPWebFramework/../../SDK/esp_iot_rtos_sdk-master/lib\liblwip.a(timers.o)
 .xt.lit        0x0000000000000000       0x58 C:/sviluppo/ESP8266/projects/ESPWebFramework/../../SDK/esp_iot_rtos_sdk-master/lib\liblwip.a(timers.o)
 .xt.prop       0x0000000000000000      0x2e8 C:/sviluppo/ESP8266/projects/ESPWebFramework/../../SDK/esp_iot_rtos_sdk-master/lib\liblwip.a(timers.o)
 .irom0.literal
                0x0000000000000000        0x0 C:/sviluppo/ESP8266/projects/ESPWebFramework/../../SDK/esp_iot_rtos_sdk-master/lib\liblwip.a(udp.o)
 .text          0x0000000000000000        0x0 C:/sviluppo/ESP8266/projects/ESPWebFramework/../../SDK/esp_iot_rtos_sdk-master/lib\liblwip.a(udp.o)
 .xt.lit        0x0000000000000000       0x40 C:/sviluppo/ESP8266/projects/ESPWebFramework/../../SDK/esp_iot_rtos_sdk-master/lib\liblwip.a(udp.o)
 .xt.prop       0x0000000000000000      0x564 C:/sviluppo/ESP8266/projects/ESPWebFramework/../../SDK/esp_iot_rtos_sdk-master/lib\liblwip.a(udp.o)
 .irom0.literal
                0x0000000000000000        0x0 C:/sviluppo/ESP8266/projects/ESPWebFramework/../../SDK/esp_iot_rtos_sdk-master/lib\liblwip.a(icmp.o)
 .text          0x0000000000000000        0x0 C:/sviluppo/ESP8266/projects/ESPWebFramework/../../SDK/esp_iot_rtos_sdk-master/lib\liblwip.a(icmp.o)
 .data          0x0000000000000000        0x0 C:/sviluppo/ESP8266/projects/ESPWebFramework/../../SDK/esp_iot_rtos_sdk-master/lib\liblwip.a(icmp.o)
 .bss           0x0000000000000000        0x0 C:/sviluppo/ESP8266/projects/ESPWebFramework/../../SDK/esp_iot_rtos_sdk-master/lib\liblwip.a(icmp.o)
 .xt.lit        0x0000000000000000       0x10 C:/sviluppo/ESP8266/projects/ESPWebFramework/../../SDK/esp_iot_rtos_sdk-master/lib\liblwip.a(icmp.o)
 .xt.prop       0x0000000000000000      0x12c C:/sviluppo/ESP8266/projects/ESPWebFramework/../../SDK/esp_iot_rtos_sdk-master/lib\liblwip.a(icmp.o)
 .irom0.literal
                0x0000000000000000        0x0 C:/sviluppo/ESP8266/projects/ESPWebFramework/../../SDK/esp_iot_rtos_sdk-master/lib\liblwip.a(inet_chksum.o)
 .text          0x0000000000000000        0x0 C:/sviluppo/ESP8266/projects/ESPWebFramework/../../SDK/esp_iot_rtos_sdk-master/lib\liblwip.a(inet_chksum.o)
 .data          0x0000000000000000        0x0 C:/sviluppo/ESP8266/projects/ESPWebFramework/../../SDK/esp_iot_rtos_sdk-master/lib\liblwip.a(inet_chksum.o)
 .bss           0x0000000000000000        0x0 C:/sviluppo/ESP8266/projects/ESPWebFramework/../../SDK/esp_iot_rtos_sdk-master/lib\liblwip.a(inet_chksum.o)
 .xt.prop       0x0000000000000000      0x1bc C:/sviluppo/ESP8266/projects/ESPWebFramework/../../SDK/esp_iot_rtos_sdk-master/lib\liblwip.a(inet_chksum.o)
 .irom0.literal
                0x0000000000000000        0x0 C:/sviluppo/ESP8266/projects/ESPWebFramework/../../SDK/esp_iot_rtos_sdk-master/lib\liblwip.a(init.o)
 .text          0x0000000000000000        0x0 C:/sviluppo/ESP8266/projects/ESPWebFramework/../../SDK/esp_iot_rtos_sdk-master/lib\liblwip.a(init.o)
 .data          0x0000000000000000        0x0 C:/sviluppo/ESP8266/projects/ESPWebFramework/../../SDK/esp_iot_rtos_sdk-master/lib\liblwip.a(init.o)
 .bss           0x0000000000000000        0x0 C:/sviluppo/ESP8266/projects/ESPWebFramework/../../SDK/esp_iot_rtos_sdk-master/lib\liblwip.a(init.o)
 .xt.lit        0x0000000000000000        0x8 C:/sviluppo/ESP8266/projects/ESPWebFramework/../../SDK/esp_iot_rtos_sdk-master/lib\liblwip.a(init.o)
 .xt.prop       0x0000000000000000       0x24 C:/sviluppo/ESP8266/projects/ESPWebFramework/../../SDK/esp_iot_rtos_sdk-master/lib\liblwip.a(init.o)
 .irom0.literal
                0x0000000000000000        0x0 C:/sviluppo/ESP8266/projects/ESPWebFramework/../../SDK/esp_iot_rtos_sdk-master/lib\liblwip.a(sockets.o)
 .text          0x0000000000000000        0x0 C:/sviluppo/ESP8266/projects/ESPWebFramework/../../SDK/esp_iot_rtos_sdk-master/lib\liblwip.a(sockets.o)
 .data          0x0000000000000000        0x0 C:/sviluppo/ESP8266/projects/ESPWebFramework/../../SDK/esp_iot_rtos_sdk-master/lib\liblwip.a(sockets.o)
 .xt.lit        0x0000000000000000       0xb8 C:/sviluppo/ESP8266/projects/ESPWebFramework/../../SDK/esp_iot_rtos_sdk-master/lib\liblwip.a(sockets.o)
 .xt.prop       0x0000000000000000     0x1320 C:/sviluppo/ESP8266/projects/ESPWebFramework/../../SDK/esp_iot_rtos_sdk-master/lib\liblwip.a(sockets.o)
 .irom0.literal
                0x0000000000000000        0x0 C:/sviluppo/ESP8266/projects/ESPWebFramework/../../SDK/esp_iot_rtos_sdk-master/lib\liblwip.a(api_lib.o)
 .text          0x0000000000000000        0x0 C:/sviluppo/ESP8266/projects/ESPWebFramework/../../SDK/esp_iot_rtos_sdk-master/lib\liblwip.a(api_lib.o)
 .data          0x0000000000000000        0x0 C:/sviluppo/ESP8266/projects/ESPWebFramework/../../SDK/esp_iot_rtos_sdk-master/lib\liblwip.a(api_lib.o)
 .bss           0x0000000000000000        0x0 C:/sviluppo/ESP8266/projects/ESPWebFramework/../../SDK/esp_iot_rtos_sdk-master/lib\liblwip.a(api_lib.o)
 .xt.lit        0x0000000000000000       0x78 C:/sviluppo/ESP8266/projects/ESPWebFramework/../../SDK/esp_iot_rtos_sdk-master/lib\liblwip.a(api_lib.o)
 .xt.prop       0x0000000000000000      0x6f0 C:/sviluppo/ESP8266/projects/ESPWebFramework/../../SDK/esp_iot_rtos_sdk-master/lib\liblwip.a(api_lib.o)
 .irom0.literal
                0x0000000000000000        0x0 C:/sviluppo/ESP8266/projects/ESPWebFramework/../../SDK/esp_iot_rtos_sdk-master/lib\liblwip.a(api_msg.o)
 .text          0x0000000000000000        0x0 C:/sviluppo/ESP8266/projects/ESPWebFramework/../../SDK/esp_iot_rtos_sdk-master/lib\liblwip.a(api_msg.o)
 .data          0x0000000000000000        0x0 C:/sviluppo/ESP8266/projects/ESPWebFramework/../../SDK/esp_iot_rtos_sdk-master/lib\liblwip.a(api_msg.o)
 .bss           0x0000000000000000        0x0 C:/sviluppo/ESP8266/projects/ESPWebFramework/../../SDK/esp_iot_rtos_sdk-master/lib\liblwip.a(api_msg.o)
 .xt.lit        0x0000000000000000       0xd0 C:/sviluppo/ESP8266/projects/ESPWebFramework/../../SDK/esp_iot_rtos_sdk-master/lib\liblwip.a(api_msg.o)
 .xt.prop       0x0000000000000000      0xca8 C:/sviluppo/ESP8266/projects/ESPWebFramework/../../SDK/esp_iot_rtos_sdk-master/lib\liblwip.a(api_msg.o)
 .literal       0x0000000000000000        0x0 C:/sviluppo/ESP8266/projects/ESPWebFramework/../../SDK/esp_iot_rtos_sdk-master/lib\liblwip.a(netbuf.o)
 .irom0.literal
                0x0000000000000000        0x0 C:/sviluppo/ESP8266/projects/ESPWebFramework/../../SDK/esp_iot_rtos_sdk-master/lib\liblwip.a(netbuf.o)
 .text          0x0000000000000000       0x32 C:/sviluppo/ESP8266/projects/ESPWebFramework/../../SDK/esp_iot_rtos_sdk-master/lib\liblwip.a(netbuf.o)
 .data          0x0000000000000000        0x0 C:/sviluppo/ESP8266/projects/ESPWebFramework/../../SDK/esp_iot_rtos_sdk-master/lib\liblwip.a(netbuf.o)
 .bss           0x0000000000000000        0x0 C:/sviluppo/ESP8266/projects/ESPWebFramework/../../SDK/esp_iot_rtos_sdk-master/lib\liblwip.a(netbuf.o)
 .xt.lit        0x0000000000000000       0x30 C:/sviluppo/ESP8266/projects/ESPWebFramework/../../SDK/esp_iot_rtos_sdk-master/lib\liblwip.a(netbuf.o)
 .xt.prop       0x0000000000000000      0x24c C:/sviluppo/ESP8266/projects/ESPWebFramework/../../SDK/esp_iot_rtos_sdk-master/lib\liblwip.a(netbuf.o)
 .group         0x0000000000000000       0x14 libuser.a(user_main.o)
 .group         0x0000000000000000        0xc libuser.a(user_main.o)
 .group         0x0000000000000000        0xc libuser.a(user_main.o)
 .group         0x0000000000000000        0xc libuser.a(user_main.o)
 .literal       0x0000000000000000        0x0 libuser.a(user_main.o)
 .data          0x0000000000000000        0x0 libuser.a(user_main.o)
 .bss           0x0000000000000000        0x0 libuser.a(user_main.o)
 .xt.lit        0x0000000000000000        0x8 libuser.a(user_main.o)
 .xt.prop       0x0000000000000000       0x24 libuser.a(user_main.o)
 .group         0x0000000000000000       0x14 libuser.a(fdvserial.o)
 .group         0x0000000000000000       0x14 libuser.a(fdvserial.o)
 .group         0x0000000000000000       0x14 libuser.a(fdvserial.o)
 .group         0x0000000000000000       0x14 libuser.a(fdvserial.o)
 .group         0x0000000000000000       0x14 libuser.a(fdvserial.o)
 .group         0x0000000000000000       0x14 libuser.a(fdvserial.o)
 .group         0x0000000000000000        0xc libuser.a(fdvserial.o)
 .irom0.literal
                0x0000000000000000        0x0 libuser.a(fdvserial.o)
 .literal       0x0000000000000000        0x0 libuser.a(fdvserial.o)
 .data          0x0000000000000000        0x0 libuser.a(fdvserial.o)
 .xt.lit        0x0000000000000000       0x20 libuser.a(fdvserial.o)
 .xt.prop       0x0000000000000000      0x108 libuser.a(fdvserial.o)
 .irom0.literal
                0x0000000000000000        0x0 libuser.a(fdvsync.o)
 .text          0x0000000000000000        0x0 libuser.a(fdvsync.o)
 .data          0x0000000000000000        0x0 libuser.a(fdvsync.o)
 .bss           0x0000000000000000        0x0 libuser.a(fdvsync.o)
 .xt.lit        0x0000000000000000       0x30 libuser.a(fdvsync.o)
 .xt.prop       0x0000000000000000      0x108 libuser.a(fdvsync.o)
 .irom0.literal
                0x0000000000000000        0x0 libuser.a(fdvutils.o)
 .text          0x0000000000000000        0x0 libuser.a(fdvutils.o)
 .data          0x0000000000000000        0x0 libuser.a(fdvutils.o)
 .bss           0x0000000000000000        0x4 libuser.a(fdvutils.o)
 .xt.lit        0x0000000000000000       0x20 libuser.a(fdvutils.o)
 .xt.prop       0x0000000000000000       0xfc libuser.a(fdvutils.o)
 .text          0x0000000000000000        0x0 libuser.a(fdvflash.o)
 .bss           0x0000000000000000        0x0 libuser.a(fdvflash.o)
 .xt.prop       0x0000000000000000        0xc libuser.a(fdvflash.o)
 .data          0x0000000000000000        0x0 c:/sviluppo/esp8266/sdk/xtensa-lx106-elf/bin/../lib/gcc/xtensa-lx106-elf/4.8.2\libgcc.a(_divsi3.o)
 .bss           0x0000000000000000        0x0 c:/sviluppo/esp8266/sdk/xtensa-lx106-elf/bin/../lib/gcc/xtensa-lx106-elf/4.8.2\libgcc.a(_divsi3.o)
 .xt.prop       0x0000000000000000       0x9c c:/sviluppo/esp8266/sdk/xtensa-lx106-elf/bin/../lib/gcc/xtensa-lx106-elf/4.8.2\libgcc.a(_divsi3.o)
 .data          0x0000000000000000        0x0 c:/sviluppo/esp8266/sdk/xtensa-lx106-elf/bin/../lib/gcc/xtensa-lx106-elf/4.8.2\libgcc.a(_udivsi3.o)
 .bss           0x0000000000000000        0x0 c:/sviluppo/esp8266/sdk/xtensa-lx106-elf/bin/../lib/gcc/xtensa-lx106-elf/4.8.2\libgcc.a(_udivsi3.o)
 .xt.prop       0x0000000000000000       0x9c c:/sviluppo/esp8266/sdk/xtensa-lx106-elf/bin/../lib/gcc/xtensa-lx106-elf/4.8.2\libgcc.a(_udivsi3.o)
 .data          0x0000000000000000        0x0 c:/sviluppo/esp8266/sdk/xtensa-lx106-elf/bin/../lib/gcc/xtensa-lx106-elf/4.8.2\libgcc.a(_umodsi3.o)
 .bss           0x0000000000000000        0x0 c:/sviluppo/esp8266/sdk/xtensa-lx106-elf/bin/../lib/gcc/xtensa-lx106-elf/4.8.2\libgcc.a(_umodsi3.o)
 .xt.prop       0x0000000000000000       0x78 c:/sviluppo/esp8266/sdk/xtensa-lx106-elf/bin/../lib/gcc/xtensa-lx106-elf/4.8.2\libgcc.a(_umodsi3.o)
 .data          0x0000000000000000        0x0 c:/sviluppo/esp8266/sdk/xtensa-lx106-elf/bin/../lib/gcc/xtensa-lx106-elf/4.8.2/../../../../xtensa-lx106-elf/lib\libcirom.a(lib_a-bzero.o)
 .bss           0x0000000000000000        0x0 c:/sviluppo/esp8266/sdk/xtensa-lx106-elf/bin/../lib/gcc/xtensa-lx106-elf/4.8.2/../../../../xtensa-lx106-elf/lib\libcirom.a(lib_a-bzero.o)
 .xt.prop       0x0000000000000000       0x3c c:/sviluppo/esp8266/sdk/xtensa-lx106-elf/bin/../lib/gcc/xtensa-lx106-elf/4.8.2/../../../../xtensa-lx106-elf/lib\libcirom.a(lib_a-bzero.o)
 .data          0x0000000000000000        0x0 c:/sviluppo/esp8266/sdk/xtensa-lx106-elf/bin/../lib/gcc/xtensa-lx106-elf/4.8.2/../../../../xtensa-lx106-elf/lib\libcirom.a(lib_a-memcmp.o)
 .bss           0x0000000000000000        0x0 c:/sviluppo/esp8266/sdk/xtensa-lx106-elf/bin/../lib/gcc/xtensa-lx106-elf/4.8.2/../../../../xtensa-lx106-elf/lib\libcirom.a(lib_a-memcmp.o)
 .xt.prop       0x0000000000000000       0x90 c:/sviluppo/esp8266/sdk/xtensa-lx106-elf/bin/../lib/gcc/xtensa-lx106-elf/4.8.2/../../../../xtensa-lx106-elf/lib\libcirom.a(lib_a-memcmp.o)
 .data          0x0000000000000000        0x0 c:/sviluppo/esp8266/sdk/xtensa-lx106-elf/bin/../lib/gcc/xtensa-lx106-elf/4.8.2/../../../../xtensa-lx106-elf/lib\libcirom.a(lib_a-memcpy.o)
 .bss           0x0000000000000000        0x0 c:/sviluppo/esp8266/sdk/xtensa-lx106-elf/bin/../lib/gcc/xtensa-lx106-elf/4.8.2/../../../../xtensa-lx106-elf/lib\libcirom.a(lib_a-memcpy.o)
 .xt.prop       0x0000000000000000      0x174 c:/sviluppo/esp8266/sdk/xtensa-lx106-elf/bin/../lib/gcc/xtensa-lx106-elf/4.8.2/../../../../xtensa-lx106-elf/lib\libcirom.a(lib_a-memcpy.o)
 .data          0x0000000000000000        0x0 c:/sviluppo/esp8266/sdk/xtensa-lx106-elf/bin/../lib/gcc/xtensa-lx106-elf/4.8.2/../../../../xtensa-lx106-elf/lib\libcirom.a(lib_a-memset.o)
 .bss           0x0000000000000000        0x0 c:/sviluppo/esp8266/sdk/xtensa-lx106-elf/bin/../lib/gcc/xtensa-lx106-elf/4.8.2/../../../../xtensa-lx106-elf/lib\libcirom.a(lib_a-memset.o)
 .xt.prop       0x0000000000000000       0xe4 c:/sviluppo/esp8266/sdk/xtensa-lx106-elf/bin/../lib/gcc/xtensa-lx106-elf/4.8.2/../../../../xtensa-lx106-elf/lib\libcirom.a(lib_a-memset.o)
 .data          0x0000000000000000        0x0 c:/sviluppo/esp8266/sdk/xtensa-lx106-elf/bin/../lib/gcc/xtensa-lx106-elf/4.8.2/../../../../xtensa-lx106-elf/lib\libcirom.a(lib_a-strcmp.o)
 .bss           0x0000000000000000        0x0 c:/sviluppo/esp8266/sdk/xtensa-lx106-elf/bin/../lib/gcc/xtensa-lx106-elf/4.8.2/../../../../xtensa-lx106-elf/lib\libcirom.a(lib_a-strcmp.o)
 .xt.lit        0x0000000000000000        0x8 c:/sviluppo/esp8266/sdk/xtensa-lx106-elf/bin/../lib/gcc/xtensa-lx106-elf/4.8.2/../../../../xtensa-lx106-elf/lib\libcirom.a(lib_a-strcmp.o)
 .xt.prop       0x0000000000000000      0x108 c:/sviluppo/esp8266/sdk/xtensa-lx106-elf/bin/../lib/gcc/xtensa-lx106-elf/4.8.2/../../../../xtensa-lx106-elf/lib\libcirom.a(lib_a-strcmp.o)
 .data          0x0000000000000000        0x0 c:/sviluppo/esp8266/sdk/xtensa-lx106-elf/bin/../lib/gcc/xtensa-lx106-elf/4.8.2/../../../../xtensa-lx106-elf/lib\libcirom.a(lib_a-strlen.o)
 .bss           0x0000000000000000        0x0 c:/sviluppo/esp8266/sdk/xtensa-lx106-elf/bin/../lib/gcc/xtensa-lx106-elf/4.8.2/../../../../xtensa-lx106-elf/lib\libcirom.a(lib_a-strlen.o)
 .xt.lit        0x0000000000000000        0x8 c:/sviluppo/esp8266/sdk/xtensa-lx106-elf/bin/../lib/gcc/xtensa-lx106-elf/4.8.2/../../../../xtensa-lx106-elf/lib\libcirom.a(lib_a-strlen.o)
 .xt.prop       0x0000000000000000       0xb4 c:/sviluppo/esp8266/sdk/xtensa-lx106-elf/bin/../lib/gcc/xtensa-lx106-elf/4.8.2/../../../../xtensa-lx106-elf/lib\libcirom.a(lib_a-strlen.o)
 .data          0x0000000000000000        0x0 c:/sviluppo/esp8266/sdk/xtensa-lx106-elf/bin/../lib/gcc/xtensa-lx106-elf/4.8.2/../../../../xtensa-lx106-elf/lib\libcirom.a(lib_a-strncmp.o)
 .bss           0x0000000000000000        0x0 c:/sviluppo/esp8266/sdk/xtensa-lx106-elf/bin/../lib/gcc/xtensa-lx106-elf/4.8.2/../../../../xtensa-lx106-elf/lib\libcirom.a(lib_a-strncmp.o)
 .xt.lit        0x0000000000000000        0x8 c:/sviluppo/esp8266/sdk/xtensa-lx106-elf/bin/../lib/gcc/xtensa-lx106-elf/4.8.2/../../../../xtensa-lx106-elf/lib\libcirom.a(lib_a-strncmp.o)
 .xt.prop       0x0000000000000000      0x18c c:/sviluppo/esp8266/sdk/xtensa-lx106-elf/bin/../lib/gcc/xtensa-lx106-elf/4.8.2/../../../../xtensa-lx106-elf/lib\libcirom.a(lib_a-strncmp.o)
 .data          0x0000000000000000        0x0 C:/sviluppo/ESP8266/projects/ESPWebFramework/../../SDK/esp_iot_rtos_sdk-master/lib\libhal.a(clock.o)
 .bss           0x0000000000000000        0x0 C:/sviluppo/ESP8266/projects/ESPWebFramework/../../SDK/esp_iot_rtos_sdk-master/lib\libhal.a(clock.o)
 .xt.prop       0x0000000000000000       0x6c C:/sviluppo/ESP8266/projects/ESPWebFramework/../../SDK/esp_iot_rtos_sdk-master/lib\libhal.a(clock.o)
 .data          0x0000000000000000        0x0 C:/sviluppo/ESP8266/projects/ESPWebFramework/../../SDK/esp_iot_rtos_sdk-master/lib\libhal.a(int_asm--set_intset.o)
 .bss           0x0000000000000000        0x0 C:/sviluppo/ESP8266/projects/ESPWebFramework/../../SDK/esp_iot_rtos_sdk-master/lib\libhal.a(int_asm--set_intset.o)
 .xt.prop       0x0000000000000000       0x18 C:/sviluppo/ESP8266/projects/ESPWebFramework/../../SDK/esp_iot_rtos_sdk-master/lib\libhal.a(int_asm--set_intset.o)
 .irom0.literal
                0x0000000000000000        0x0 C:/sviluppo/ESP8266/projects/ESPWebFramework/../../SDK/esp_iot_rtos_sdk-master/lib\libphy.a(phy.o)
 .literal       0x0000000000000000        0x0 C:/sviluppo/ESP8266/projects/ESPWebFramework/../../SDK/esp_iot_rtos_sdk-master/lib\libphy.a(phy.o)
 .data          0x0000000000000000        0x0 C:/sviluppo/ESP8266/projects/ESPWebFramework/../../SDK/esp_iot_rtos_sdk-master/lib\libphy.a(phy.o)
 .xt.lit        0x0000000000000000       0x60 C:/sviluppo/ESP8266/projects/ESPWebFramework/../../SDK/esp_iot_rtos_sdk-master/lib\libphy.a(phy.o)
 .xt.prop       0x0000000000000000      0x1bc C:/sviluppo/ESP8266/projects/ESPWebFramework/../../SDK/esp_iot_rtos_sdk-master/lib\libphy.a(phy.o)
 .irom0.literal
                0x0000000000000000        0x0 C:/sviluppo/ESP8266/projects/ESPWebFramework/../../SDK/esp_iot_rtos_sdk-master/lib\libphy.a(phy_chip_v6_ana.o)
 .text          0x0000000000000000        0x0 C:/sviluppo/ESP8266/projects/ESPWebFramework/../../SDK/esp_iot_rtos_sdk-master/lib\libphy.a(phy_chip_v6_ana.o)
 .data          0x0000000000000000        0x0 C:/sviluppo/ESP8266/projects/ESPWebFramework/../../SDK/esp_iot_rtos_sdk-master/lib\libphy.a(phy_chip_v6_ana.o)
 .bss           0x0000000000000000        0x0 C:/sviluppo/ESP8266/projects/ESPWebFramework/../../SDK/esp_iot_rtos_sdk-master/lib\libphy.a(phy_chip_v6_ana.o)
 .rodata        0x0000000000000000        0x8 C:/sviluppo/ESP8266/projects/ESPWebFramework/../../SDK/esp_iot_rtos_sdk-master/lib\libphy.a(phy_chip_v6_ana.o)
 .xt.lit        0x0000000000000000       0xb0 C:/sviluppo/ESP8266/projects/ESPWebFramework/../../SDK/esp_iot_rtos_sdk-master/lib\libphy.a(phy_chip_v6_ana.o)
 .xt.prop       0x0000000000000000      0xb4c C:/sviluppo/ESP8266/projects/ESPWebFramework/../../SDK/esp_iot_rtos_sdk-master/lib\libphy.a(phy_chip_v6_ana.o)
 .irom0.literal
                0x0000000000000000        0x0 C:/sviluppo/ESP8266/projects/ESPWebFramework/../../SDK/esp_iot_rtos_sdk-master/lib\libphy.a(phy_chip_v6.o)
 .literal       0x0000000000000000        0x0 C:/sviluppo/ESP8266/projects/ESPWebFramework/../../SDK/esp_iot_rtos_sdk-master/lib\libphy.a(phy_chip_v6.o)
 .xt.lit        0x0000000000000000      0x188 C:/sviluppo/ESP8266/projects/ESPWebFramework/../../SDK/esp_iot_rtos_sdk-master/lib\libphy.a(phy_chip_v6.o)
 .xt.prop       0x0000000000000000     0x19e0 C:/sviluppo/ESP8266/projects/ESPWebFramework/../../SDK/esp_iot_rtos_sdk-master/lib\libphy.a(phy_chip_v6.o)
 .irom0.literal
                0x0000000000000000        0x0 C:/sviluppo/ESP8266/projects/ESPWebFramework/../../SDK/esp_iot_rtos_sdk-master/lib\libphy.a(phy_chip_v6_cal.o)
 .text          0x0000000000000000        0x0 C:/sviluppo/ESP8266/projects/ESPWebFramework/../../SDK/esp_iot_rtos_sdk-master/lib\libphy.a(phy_chip_v6_cal.o)
 .xt.lit        0x0000000000000000       0xe0 C:/sviluppo/ESP8266/projects/ESPWebFramework/../../SDK/esp_iot_rtos_sdk-master/lib\libphy.a(phy_chip_v6_cal.o)
 .xt.prop       0x0000000000000000      0xffc C:/sviluppo/ESP8266/projects/ESPWebFramework/../../SDK/esp_iot_rtos_sdk-master/lib\libphy.a(phy_chip_v6_cal.o)
 .irom0.literal
                0x0000000000000000        0x0 C:/sviluppo/ESP8266/projects/ESPWebFramework/../../SDK/esp_iot_rtos_sdk-master/lib\libphy.a(phy_chip_v6_unused.o)
 .text          0x0000000000000000        0x0 C:/sviluppo/ESP8266/projects/ESPWebFramework/../../SDK/esp_iot_rtos_sdk-master/lib\libphy.a(phy_chip_v6_unused.o)
 .data          0x0000000000000000        0x0 C:/sviluppo/ESP8266/projects/ESPWebFramework/../../SDK/esp_iot_rtos_sdk-master/lib\libphy.a(phy_chip_v6_unused.o)
 .bss           0x0000000000000000        0x0 C:/sviluppo/ESP8266/projects/ESPWebFramework/../../SDK/esp_iot_rtos_sdk-master/lib\libphy.a(phy_chip_v6_unused.o)
 .xt.lit        0x0000000000000000       0x28 C:/sviluppo/ESP8266/projects/ESPWebFramework/../../SDK/esp_iot_rtos_sdk-master/lib\libphy.a(phy_chip_v6_unused.o)
 .xt.prop       0x0000000000000000      0x168 C:/sviluppo/ESP8266/projects/ESPWebFramework/../../SDK/esp_iot_rtos_sdk-master/lib\libphy.a(phy_chip_v6_unused.o)
 .irom0.literal
                0x0000000000000000        0x0 C:/sviluppo/ESP8266/projects/ESPWebFramework/../../SDK/esp_iot_rtos_sdk-master/lib\libphy.a(phy_sleep.o)
 .literal       0x0000000000000000        0x0 C:/sviluppo/ESP8266/projects/ESPWebFramework/../../SDK/esp_iot_rtos_sdk-master/lib\libphy.a(phy_sleep.o)
 .xt.lit        0x0000000000000000       0xd0 C:/sviluppo/ESP8266/projects/ESPWebFramework/../../SDK/esp_iot_rtos_sdk-master/lib\libphy.a(phy_sleep.o)
 .xt.prop       0x0000000000000000      0x84c C:/sviluppo/ESP8266/projects/ESPWebFramework/../../SDK/esp_iot_rtos_sdk-master/lib\libphy.a(phy_sleep.o)
 .irom0.literal
                0x0000000000000000        0x0 C:/sviluppo/ESP8266/projects/ESPWebFramework/../../SDK/esp_iot_rtos_sdk-master/lib\libphy.a(phy_chip_v5_romfunc.o)
 .literal       0x0000000000000000        0x0 C:/sviluppo/ESP8266/projects/ESPWebFramework/../../SDK/esp_iot_rtos_sdk-master/lib\libphy.a(phy_chip_v5_romfunc.o)
 .text          0x0000000000000000        0xb C:/sviluppo/ESP8266/projects/ESPWebFramework/../../SDK/esp_iot_rtos_sdk-master/lib\libphy.a(phy_chip_v5_romfunc.o)
 .bss           0x0000000000000000        0x0 C:/sviluppo/ESP8266/projects/ESPWebFramework/../../SDK/esp_iot_rtos_sdk-master/lib\libphy.a(phy_chip_v5_romfunc.o)
 .xt.lit        0x0000000000000000       0xd8 C:/sviluppo/ESP8266/projects/ESPWebFramework/../../SDK/esp_iot_rtos_sdk-master/lib\libphy.a(phy_chip_v5_romfunc.o)
 .xt.prop       0x0000000000000000      0x5e8 C:/sviluppo/ESP8266/projects/ESPWebFramework/../../SDK/esp_iot_rtos_sdk-master/lib\libphy.a(phy_chip_v5_romfunc.o)
 .irom0.literal
                0x0000000000000000        0x0 C:/sviluppo/ESP8266/projects/ESPWebFramework/../../SDK/esp_iot_rtos_sdk-master/lib\libphy.a(phy_chip_v5_ana_romfunc.o)
 .text          0x0000000000000000        0x0 C:/sviluppo/ESP8266/projects/ESPWebFramework/../../SDK/esp_iot_rtos_sdk-master/lib\libphy.a(phy_chip_v5_ana_romfunc.o)
 .data          0x0000000000000000        0x0 C:/sviluppo/ESP8266/projects/ESPWebFramework/../../SDK/esp_iot_rtos_sdk-master/lib\libphy.a(phy_chip_v5_ana_romfunc.o)
 .bss           0x0000000000000000        0x0 C:/sviluppo/ESP8266/projects/ESPWebFramework/../../SDK/esp_iot_rtos_sdk-master/lib\libphy.a(phy_chip_v5_ana_romfunc.o)
 .xt.lit        0x0000000000000000       0xd8 C:/sviluppo/ESP8266/projects/ESPWebFramework/../../SDK/esp_iot_rtos_sdk-master/lib\libphy.a(phy_chip_v5_ana_romfunc.o)
 .xt.prop       0x0000000000000000      0xa08 C:/sviluppo/ESP8266/projects/ESPWebFramework/../../SDK/esp_iot_rtos_sdk-master/lib\libphy.a(phy_chip_v5_ana_romfunc.o)
 .irom0.literal
                0x0000000000000000        0x0 C:/sviluppo/ESP8266/projects/ESPWebFramework/../../SDK/esp_iot_rtos_sdk-master/lib\libphy.a(phy_chip_v5_cal_romfunc.o)
 .text          0x0000000000000000        0x0 C:/sviluppo/ESP8266/projects/ESPWebFramework/../../SDK/esp_iot_rtos_sdk-master/lib\libphy.a(phy_chip_v5_cal_romfunc.o)
 .bss           0x0000000000000000        0x0 C:/sviluppo/ESP8266/projects/ESPWebFramework/../../SDK/esp_iot_rtos_sdk-master/lib\libphy.a(phy_chip_v5_cal_romfunc.o)
 .xt.lit        0x0000000000000000       0x58 C:/sviluppo/ESP8266/projects/ESPWebFramework/../../SDK/esp_iot_rtos_sdk-master/lib\libphy.a(phy_chip_v5_cal_romfunc.o)
 .xt.prop       0x0000000000000000      0x6fc C:/sviluppo/ESP8266/projects/ESPWebFramework/../../SDK/esp_iot_rtos_sdk-master/lib\libphy.a(phy_chip_v5_cal_romfunc.o)
 .literal       0x0000000000000000        0x0 C:/sviluppo/ESP8266/projects/ESPWebFramework/../../SDK/esp_iot_rtos_sdk-master/lib\libpp.a(lmac.o)
 .irom0.literal
                0x0000000000000000        0x0 C:/sviluppo/ESP8266/projects/ESPWebFramework/../../SDK/esp_iot_rtos_sdk-master/lib\libpp.a(lmac.o)
 .data          0x0000000000000000        0x0 C:/sviluppo/ESP8266/projects/ESPWebFramework/../../SDK/esp_iot_rtos_sdk-master/lib\libpp.a(lmac.o)
 .xt.lit        0x0000000000000000      0x108 C:/sviluppo/ESP8266/projects/ESPWebFramework/../../SDK/esp_iot_rtos_sdk-master/lib\libpp.a(lmac.o)
 .xt.prop       0x0000000000000000     0x1128 C:/sviluppo/ESP8266/projects/ESPWebFramework/../../SDK/esp_iot_rtos_sdk-master/lib\libpp.a(lmac.o)
 .irom0.literal
                0x0000000000000000        0x0 C:/sviluppo/ESP8266/projects/ESPWebFramework/../../SDK/esp_iot_rtos_sdk-master/lib\libpp.a(pm.o)
 .text          0x0000000000000000        0x0 C:/sviluppo/ESP8266/projects/ESPWebFramework/../../SDK/esp_iot_rtos_sdk-master/lib\libpp.a(pm.o)
 .xt.lit        0x0000000000000000      0x120 C:/sviluppo/ESP8266/projects/ESPWebFramework/../../SDK/esp_iot_rtos_sdk-master/lib\libpp.a(pm.o)
 .xt.prop       0x0000000000000000      0xc6c C:/sviluppo/ESP8266/projects/ESPWebFramework/../../SDK/esp_iot_rtos_sdk-master/lib\libpp.a(pm.o)
 .literal       0x0000000000000000        0x0 C:/sviluppo/ESP8266/projects/ESPWebFramework/../../SDK/esp_iot_rtos_sdk-master/lib\libpp.a(pp.o)
 .irom0.literal
                0x0000000000000000        0x0 C:/sviluppo/ESP8266/projects/ESPWebFramework/../../SDK/esp_iot_rtos_sdk-master/lib\libpp.a(pp.o)
 .xt.lit        0x0000000000000000      0x158 C:/sviluppo/ESP8266/projects/ESPWebFramework/../../SDK/esp_iot_rtos_sdk-master/lib\libpp.a(pp.o)
 .xt.prop       0x0000000000000000     0x1494 C:/sviluppo/ESP8266/projects/ESPWebFramework/../../SDK/esp_iot_rtos_sdk-master/lib\libpp.a(pp.o)
 .literal       0x0000000000000000        0x0 C:/sviluppo/ESP8266/projects/ESPWebFramework/../../SDK/esp_iot_rtos_sdk-master/lib\libpp.a(rate_control.o)
 .irom0.literal
                0x0000000000000000        0x0 C:/sviluppo/ESP8266/projects/ESPWebFramework/../../SDK/esp_iot_rtos_sdk-master/lib\libpp.a(rate_control.o)
 .xt.lit        0x0000000000000000       0x38 C:/sviluppo/ESP8266/projects/ESPWebFramework/../../SDK/esp_iot_rtos_sdk-master/lib\libpp.a(rate_control.o)
 .xt.prop       0x0000000000000000      0x1d4 C:/sviluppo/ESP8266/projects/ESPWebFramework/../../SDK/esp_iot_rtos_sdk-master/lib\libpp.a(rate_control.o)
 .literal       0x0000000000000000        0x0 C:/sviluppo/ESP8266/projects/ESPWebFramework/../../SDK/esp_iot_rtos_sdk-master/lib\libpp.a(trc.o)
 .irom0.literal
                0x0000000000000000        0x0 C:/sviluppo/ESP8266/projects/ESPWebFramework/../../SDK/esp_iot_rtos_sdk-master/lib\libpp.a(trc.o)
 .xt.lit        0x0000000000000000       0x90 C:/sviluppo/ESP8266/projects/ESPWebFramework/../../SDK/esp_iot_rtos_sdk-master/lib\libpp.a(trc.o)
 .xt.prop       0x0000000000000000      0xd8c C:/sviluppo/ESP8266/projects/ESPWebFramework/../../SDK/esp_iot_rtos_sdk-master/lib\libpp.a(trc.o)
 .literal       0x0000000000000000        0x0 C:/sviluppo/ESP8266/projects/ESPWebFramework/../../SDK/esp_iot_rtos_sdk-master/lib\libpp.a(wdev.o)
 .irom0.literal
                0x0000000000000000        0x0 C:/sviluppo/ESP8266/projects/ESPWebFramework/../../SDK/esp_iot_rtos_sdk-master/lib\libpp.a(wdev.o)
 .xt.lit        0x0000000000000000      0x108 C:/sviluppo/ESP8266/projects/ESPWebFramework/../../SDK/esp_iot_rtos_sdk-master/lib\libpp.a(wdev.o)
 .xt.prop       0x0000000000000000      0xa8c C:/sviluppo/ESP8266/projects/ESPWebFramework/../../SDK/esp_iot_rtos_sdk-master/lib\libpp.a(wdev.o)
 .literal       0x0000000000000000        0x0 C:/sviluppo/ESP8266/projects/ESPWebFramework/../../SDK/esp_iot_rtos_sdk-master/lib\libpp.a(esf_buf.o)
 .irom0.literal
                0x0000000000000000        0x0 C:/sviluppo/ESP8266/projects/ESPWebFramework/../../SDK/esp_iot_rtos_sdk-master/lib\libpp.a(esf_buf.o)
 .data          0x0000000000000000        0x0 C:/sviluppo/ESP8266/projects/ESPWebFramework/../../SDK/esp_iot_rtos_sdk-master/lib\libpp.a(esf_buf.o)
 .xt.lit        0x0000000000000000       0x20 C:/sviluppo/ESP8266/projects/ESPWebFramework/../../SDK/esp_iot_rtos_sdk-master/lib\libpp.a(esf_buf.o)
 .xt.prop       0x0000000000000000      0x30c C:/sviluppo/ESP8266/projects/ESPWebFramework/../../SDK/esp_iot_rtos_sdk-master/lib\libpp.a(esf_buf.o)
 .irom0.literal
                0x0000000000000000        0x0 C:/sviluppo/ESP8266/projects/ESPWebFramework/../../SDK/esp_iot_rtos_sdk-master/lib\libpp.a(if_hwctrl.o)
 .text          0x0000000000000000        0x0 C:/sviluppo/ESP8266/projects/ESPWebFramework/../../SDK/esp_iot_rtos_sdk-master/lib\libpp.a(if_hwctrl.o)
 .data          0x0000000000000000        0x0 C:/sviluppo/ESP8266/projects/ESPWebFramework/../../SDK/esp_iot_rtos_sdk-master/lib\libpp.a(if_hwctrl.o)
 .xt.lit        0x0000000000000000       0x90 C:/sviluppo/ESP8266/projects/ESPWebFramework/../../SDK/esp_iot_rtos_sdk-master/lib\libpp.a(if_hwctrl.o)
 .xt.prop       0x0000000000000000      0x3a8 C:/sviluppo/ESP8266/projects/ESPWebFramework/../../SDK/esp_iot_rtos_sdk-master/lib\libpp.a(if_hwctrl.o)
 .irom0.literal
                0x0000000000000000        0x0 C:/sviluppo/ESP8266/projects/ESPWebFramework/../../SDK/esp_iot_rtos_sdk-master/lib\libnet80211.a(ieee80211.o)
 .text          0x0000000000000000        0x0 C:/sviluppo/ESP8266/projects/ESPWebFramework/../../SDK/esp_iot_rtos_sdk-master/lib\libnet80211.a(ieee80211.o)
 .data          0x0000000000000000        0x0 C:/sviluppo/ESP8266/projects/ESPWebFramework/../../SDK/esp_iot_rtos_sdk-master/lib\libnet80211.a(ieee80211.o)
 .rodata        0x0000000000000000        0x8 C:/sviluppo/ESP8266/projects/ESPWebFramework/../../SDK/esp_iot_rtos_sdk-master/lib\libnet80211.a(ieee80211.o)
 .xt.lit        0x0000000000000000       0x38 C:/sviluppo/ESP8266/projects/ESPWebFramework/../../SDK/esp_iot_rtos_sdk-master/lib\libnet80211.a(ieee80211.o)
 .xt.prop       0x0000000000000000      0x2dc C:/sviluppo/ESP8266/projects/ESPWebFramework/../../SDK/esp_iot_rtos_sdk-master/lib\libnet80211.a(ieee80211.o)
 .irom0.literal
                0x0000000000000000        0x0 C:/sviluppo/ESP8266/projects/ESPWebFramework/../../SDK/esp_iot_rtos_sdk-master/lib\libnet80211.a(ieee80211_crypto.o)
 .text          0x0000000000000000        0x0 C:/sviluppo/ESP8266/projects/ESPWebFramework/../../SDK/esp_iot_rtos_sdk-master/lib\libnet80211.a(ieee80211_crypto.o)
 .data          0x0000000000000000        0x0 C:/sviluppo/ESP8266/projects/ESPWebFramework/../../SDK/esp_iot_rtos_sdk-master/lib\libnet80211.a(ieee80211_crypto.o)
 .bss           0x0000000000000000        0x0 C:/sviluppo/ESP8266/projects/ESPWebFramework/../../SDK/esp_iot_rtos_sdk-master/lib\libnet80211.a(ieee80211_crypto.o)
 .xt.lit        0x0000000000000000       0x10 C:/sviluppo/ESP8266/projects/ESPWebFramework/../../SDK/esp_iot_rtos_sdk-master/lib\libnet80211.a(ieee80211_crypto.o)
 .xt.prop       0x0000000000000000      0x114 C:/sviluppo/ESP8266/projects/ESPWebFramework/../../SDK/esp_iot_rtos_sdk-master/lib\libnet80211.a(ieee80211_crypto.o)
 .irom0.literal
                0x0000000000000000        0x0 C:/sviluppo/ESP8266/projects/ESPWebFramework/../../SDK/esp_iot_rtos_sdk-master/lib\libnet80211.a(ieee80211_ets.o)
 .text          0x0000000000000000        0x0 C:/sviluppo/ESP8266/projects/ESPWebFramework/../../SDK/esp_iot_rtos_sdk-master/lib\libnet80211.a(ieee80211_ets.o)
 .data          0x0000000000000000        0x0 C:/sviluppo/ESP8266/projects/ESPWebFramework/../../SDK/esp_iot_rtos_sdk-master/lib\libnet80211.a(ieee80211_ets.o)
 .bss           0x0000000000000000        0x0 C:/sviluppo/ESP8266/projects/ESPWebFramework/../../SDK/esp_iot_rtos_sdk-master/lib\libnet80211.a(ieee80211_ets.o)
 .xt.lit        0x0000000000000000        0x8 C:/sviluppo/ESP8266/projects/ESPWebFramework/../../SDK/esp_iot_rtos_sdk-master/lib\libnet80211.a(ieee80211_ets.o)
 .xt.prop       0x0000000000000000       0x54 C:/sviluppo/ESP8266/projects/ESPWebFramework/../../SDK/esp_iot_rtos_sdk-master/lib\libnet80211.a(ieee80211_ets.o)
 .literal       0x0000000000000000        0x0 C:/sviluppo/ESP8266/projects/ESPWebFramework/../../SDK/esp_iot_rtos_sdk-master/lib\libnet80211.a(ieee80211_hostap.o)
 .irom0.literal
                0x0000000000000000        0x0 C:/sviluppo/ESP8266/projects/ESPWebFramework/../../SDK/esp_iot_rtos_sdk-master/lib\libnet80211.a(ieee80211_hostap.o)
 .data          0x0000000000000000        0x0 C:/sviluppo/ESP8266/projects/ESPWebFramework/../../SDK/esp_iot_rtos_sdk-master/lib\libnet80211.a(ieee80211_hostap.o)
 .xt.lit        0x0000000000000000       0x70 C:/sviluppo/ESP8266/projects/ESPWebFramework/../../SDK/esp_iot_rtos_sdk-master/lib\libnet80211.a(ieee80211_hostap.o)
 .xt.prop       0x0000000000000000      0x924 C:/sviluppo/ESP8266/projects/ESPWebFramework/../../SDK/esp_iot_rtos_sdk-master/lib\libnet80211.a(ieee80211_hostap.o)
 .irom0.literal
                0x0000000000000000        0x0 C:/sviluppo/ESP8266/projects/ESPWebFramework/../../SDK/esp_iot_rtos_sdk-master/lib\libnet80211.a(ieee80211_ht.o)
 .text          0x0000000000000000        0x0 C:/sviluppo/ESP8266/projects/ESPWebFramework/../../SDK/esp_iot_rtos_sdk-master/lib\libnet80211.a(ieee80211_ht.o)
 .data          0x0000000000000000        0x0 C:/sviluppo/ESP8266/projects/ESPWebFramework/../../SDK/esp_iot_rtos_sdk-master/lib\libnet80211.a(ieee80211_ht.o)
 .bss           0x0000000000000000        0x0 C:/sviluppo/ESP8266/projects/ESPWebFramework/../../SDK/esp_iot_rtos_sdk-master/lib\libnet80211.a(ieee80211_ht.o)
 .xt.lit        0x0000000000000000       0x68 C:/sviluppo/ESP8266/projects/ESPWebFramework/../../SDK/esp_iot_rtos_sdk-master/lib\libnet80211.a(ieee80211_ht.o)
 .xt.prop       0x0000000000000000      0x60c C:/sviluppo/ESP8266/projects/ESPWebFramework/../../SDK/esp_iot_rtos_sdk-master/lib\libnet80211.a(ieee80211_ht.o)
 .irom0.literal
                0x0000000000000000        0x0 C:/sviluppo/ESP8266/projects/ESPWebFramework/../../SDK/esp_iot_rtos_sdk-master/lib\libnet80211.a(ieee80211_input.o)
 .literal       0x0000000000000000        0x0 C:/sviluppo/ESP8266/projects/ESPWebFramework/../../SDK/esp_iot_rtos_sdk-master/lib\libnet80211.a(ieee80211_input.o)
 .data          0x0000000000000000        0x0 C:/sviluppo/ESP8266/projects/ESPWebFramework/../../SDK/esp_iot_rtos_sdk-master/lib\libnet80211.a(ieee80211_input.o)
 .bss           0x0000000000000000        0x0 C:/sviluppo/ESP8266/projects/ESPWebFramework/../../SDK/esp_iot_rtos_sdk-master/lib\libnet80211.a(ieee80211_input.o)
 .xt.lit        0x0000000000000000       0x58 C:/sviluppo/ESP8266/projects/ESPWebFramework/../../SDK/esp_iot_rtos_sdk-master/lib\libnet80211.a(ieee80211_input.o)
 .xt.prop       0x0000000000000000      0x774 C:/sviluppo/ESP8266/projects/ESPWebFramework/../../SDK/esp_iot_rtos_sdk-master/lib\libnet80211.a(ieee80211_input.o)
 .irom0.literal
                0x0000000000000000        0x0 C:/sviluppo/ESP8266/projects/ESPWebFramework/../../SDK/esp_iot_rtos_sdk-master/lib\libnet80211.a(ieee80211_output.o)
 .text          0x0000000000000000        0x0 C:/sviluppo/ESP8266/projects/ESPWebFramework/../../SDK/esp_iot_rtos_sdk-master/lib\libnet80211.a(ieee80211_output.o)
 .data          0x0000000000000000        0x0 C:/sviluppo/ESP8266/projects/ESPWebFramework/../../SDK/esp_iot_rtos_sdk-master/lib\libnet80211.a(ieee80211_output.o)
 .bss           0x0000000000000000        0x0 C:/sviluppo/ESP8266/projects/ESPWebFramework/../../SDK/esp_iot_rtos_sdk-master/lib\libnet80211.a(ieee80211_output.o)
 .xt.lit        0x0000000000000000       0x80 C:/sviluppo/ESP8266/projects/ESPWebFramework/../../SDK/esp_iot_rtos_sdk-master/lib\libnet80211.a(ieee80211_output.o)
 .xt.prop       0x0000000000000000      0xa74 C:/sviluppo/ESP8266/projects/ESPWebFramework/../../SDK/esp_iot_rtos_sdk-master/lib\libnet80211.a(ieee80211_output.o)
 .irom0.literal
                0x0000000000000000        0x0 C:/sviluppo/ESP8266/projects/ESPWebFramework/../../SDK/esp_iot_rtos_sdk-master/lib\libnet80211.a(ieee80211_phy.o)
 .text          0x0000000000000000        0x0 C:/sviluppo/ESP8266/projects/ESPWebFramework/../../SDK/esp_iot_rtos_sdk-master/lib\libnet80211.a(ieee80211_phy.o)
 .bss           0x0000000000000000        0x0 C:/sviluppo/ESP8266/projects/ESPWebFramework/../../SDK/esp_iot_rtos_sdk-master/lib\libnet80211.a(ieee80211_phy.o)
 .xt.lit        0x0000000000000000       0x38 C:/sviluppo/ESP8266/projects/ESPWebFramework/../../SDK/esp_iot_rtos_sdk-master/lib\libnet80211.a(ieee80211_phy.o)
 .xt.prop       0x0000000000000000      0x24c C:/sviluppo/ESP8266/projects/ESPWebFramework/../../SDK/esp_iot_rtos_sdk-master/lib\libnet80211.a(ieee80211_phy.o)
 .irom0.literal
                0x0000000000000000        0x0 C:/sviluppo/ESP8266/projects/ESPWebFramework/../../SDK/esp_iot_rtos_sdk-master/lib\libnet80211.a(ieee80211_power.o)
 .text          0x0000000000000000        0x0 C:/sviluppo/ESP8266/projects/ESPWebFramework/../../SDK/esp_iot_rtos_sdk-master/lib\libnet80211.a(ieee80211_power.o)
 .data          0x0000000000000000        0x0 C:/sviluppo/ESP8266/projects/ESPWebFramework/../../SDK/esp_iot_rtos_sdk-master/lib\libnet80211.a(ieee80211_power.o)
 .bss           0x0000000000000000        0x0 C:/sviluppo/ESP8266/projects/ESPWebFramework/../../SDK/esp_iot_rtos_sdk-master/lib\libnet80211.a(ieee80211_power.o)
 .xt.lit        0x0000000000000000       0x18 C:/sviluppo/ESP8266/projects/ESPWebFramework/../../SDK/esp_iot_rtos_sdk-master/lib\libnet80211.a(ieee80211_power.o)
 .xt.prop       0x0000000000000000      0x174 C:/sviluppo/ESP8266/projects/ESPWebFramework/../../SDK/esp_iot_rtos_sdk-master/lib\libnet80211.a(ieee80211_power.o)
 .irom0.literal
                0x0000000000000000        0x0 C:/sviluppo/ESP8266/projects/ESPWebFramework/../../SDK/esp_iot_rtos_sdk-master/lib\libnet80211.a(ieee80211_proto.o)
 .text          0x0000000000000000        0x0 C:/sviluppo/ESP8266/projects/ESPWebFramework/../../SDK/esp_iot_rtos_sdk-master/lib\libnet80211.a(ieee80211_proto.o)
 .bss           0x0000000000000000        0x0 C:/sviluppo/ESP8266/projects/ESPWebFramework/../../SDK/esp_iot_rtos_sdk-master/lib\libnet80211.a(ieee80211_proto.o)
 .xt.lit        0x0000000000000000       0x20 C:/sviluppo/ESP8266/projects/ESPWebFramework/../../SDK/esp_iot_rtos_sdk-master/lib\libnet80211.a(ieee80211_proto.o)
 .xt.prop       0x0000000000000000      0x204 C:/sviluppo/ESP8266/projects/ESPWebFramework/../../SDK/esp_iot_rtos_sdk-master/lib\libnet80211.a(ieee80211_proto.o)
 .irom0.literal
                0x0000000000000000        0x0 C:/sviluppo/ESP8266/projects/ESPWebFramework/../../SDK/esp_iot_rtos_sdk-master/lib\libnet80211.a(ieee80211_scan.o)
 .literal       0x0000000000000000        0x0 C:/sviluppo/ESP8266/projects/ESPWebFramework/../../SDK/esp_iot_rtos_sdk-master/lib\libnet80211.a(ieee80211_scan.o)
 .text          0x0000000000000000       0x37 C:/sviluppo/ESP8266/projects/ESPWebFramework/../../SDK/esp_iot_rtos_sdk-master/lib\libnet80211.a(ieee80211_scan.o)
 .data          0x0000000000000000        0x0 C:/sviluppo/ESP8266/projects/ESPWebFramework/../../SDK/esp_iot_rtos_sdk-master/lib\libnet80211.a(ieee80211_scan.o)
 .xt.lit        0x0000000000000000       0xd8 C:/sviluppo/ESP8266/projects/ESPWebFramework/../../SDK/esp_iot_rtos_sdk-master/lib\libnet80211.a(ieee80211_scan.o)
 .xt.prop       0x0000000000000000      0xa14 C:/sviluppo/ESP8266/projects/ESPWebFramework/../../SDK/esp_iot_rtos_sdk-master/lib\libnet80211.a(ieee80211_scan.o)
 .irom0.literal
                0x0000000000000000        0x0 C:/sviluppo/ESP8266/projects/ESPWebFramework/../../SDK/esp_iot_rtos_sdk-master/lib\libnet80211.a(ieee80211_sta.o)
 .text          0x0000000000000000        0x0 C:/sviluppo/ESP8266/projects/ESPWebFramework/../../SDK/esp_iot_rtos_sdk-master/lib\libnet80211.a(ieee80211_sta.o)
 .data          0x0000000000000000        0x0 C:/sviluppo/ESP8266/projects/ESPWebFramework/../../SDK/esp_iot_rtos_sdk-master/lib\libnet80211.a(ieee80211_sta.o)
 .bss           0x0000000000000000        0x0 C:/sviluppo/ESP8266/projects/ESPWebFramework/../../SDK/esp_iot_rtos_sdk-master/lib\libnet80211.a(ieee80211_sta.o)
 .xt.lit        0x0000000000000000       0x50 C:/sviluppo/ESP8266/projects/ESPWebFramework/../../SDK/esp_iot_rtos_sdk-master/lib\libnet80211.a(ieee80211_sta.o)
 .xt.prop       0x0000000000000000      0x828 C:/sviluppo/ESP8266/projects/ESPWebFramework/../../SDK/esp_iot_rtos_sdk-master/lib\libnet80211.a(ieee80211_sta.o)
 .irom0.literal
                0x0000000000000000        0x0 C:/sviluppo/ESP8266/projects/ESPWebFramework/../../SDK/esp_iot_rtos_sdk-master/lib\libnet80211.a(wl_chm.o)
 .literal       0x0000000000000000        0x0 C:/sviluppo/ESP8266/projects/ESPWebFramework/../../SDK/esp_iot_rtos_sdk-master/lib\libnet80211.a(wl_chm.o)
 .data          0x0000000000000000        0x0 C:/sviluppo/ESP8266/projects/ESPWebFramework/../../SDK/esp_iot_rtos_sdk-master/lib\libnet80211.a(wl_chm.o)
 .xt.lit        0x0000000000000000       0x60 C:/sviluppo/ESP8266/projects/ESPWebFramework/../../SDK/esp_iot_rtos_sdk-master/lib\libnet80211.a(wl_chm.o)
 .xt.prop       0x0000000000000000      0x2dc C:/sviluppo/ESP8266/projects/ESPWebFramework/../../SDK/esp_iot_rtos_sdk-master/lib\libnet80211.a(wl_chm.o)
 .irom0.literal
                0x0000000000000000        0x0 C:/sviluppo/ESP8266/projects/ESPWebFramework/../../SDK/esp_iot_rtos_sdk-master/lib\libnet80211.a(wl_cnx.o)
 .text          0x0000000000000000        0x0 C:/sviluppo/ESP8266/projects/ESPWebFramework/../../SDK/esp_iot_rtos_sdk-master/lib\libnet80211.a(wl_cnx.o)
 .data          0x0000000000000000        0x0 C:/sviluppo/ESP8266/projects/ESPWebFramework/../../SDK/esp_iot_rtos_sdk-master/lib\libnet80211.a(wl_cnx.o)
 .xt.lit        0x0000000000000000       0xf0 C:/sviluppo/ESP8266/projects/ESPWebFramework/../../SDK/esp_iot_rtos_sdk-master/lib\libnet80211.a(wl_cnx.o)
 .xt.prop       0x0000000000000000      0xc00 C:/sviluppo/ESP8266/projects/ESPWebFramework/../../SDK/esp_iot_rtos_sdk-master/lib\libnet80211.a(wl_cnx.o)
 .irom0.literal
                0x0000000000000000        0x0 C:/sviluppo/ESP8266/projects/ESPWebFramework/../../SDK/esp_iot_rtos_sdk-master/lib\libnet80211.a(ieee80211_action.o)
 .text          0x0000000000000000        0x0 C:/sviluppo/ESP8266/projects/ESPWebFramework/../../SDK/esp_iot_rtos_sdk-master/lib\libnet80211.a(ieee80211_action.o)
 .bss           0x0000000000000000        0x0 C:/sviluppo/ESP8266/projects/ESPWebFramework/../../SDK/esp_iot_rtos_sdk-master/lib\libnet80211.a(ieee80211_action.o)
 .xt.lit        0x0000000000000000       0x30 C:/sviluppo/ESP8266/projects/ESPWebFramework/../../SDK/esp_iot_rtos_sdk-master/lib\libnet80211.a(ieee80211_action.o)
 .xt.prop       0x0000000000000000      0x2f4 C:/sviluppo/ESP8266/projects/ESPWebFramework/../../SDK/esp_iot_rtos_sdk-master/lib\libnet80211.a(ieee80211_action.o)
 .irom0.literal
                0x0000000000000000        0x0 C:/sviluppo/ESP8266/projects/ESPWebFramework/../../SDK/esp_iot_rtos_sdk-master/lib\libwpa.a(ap_config.o)
 .text          0x0000000000000000        0x0 C:/sviluppo/ESP8266/projects/ESPWebFramework/../../SDK/esp_iot_rtos_sdk-master/lib\libwpa.a(ap_config.o)
 .data          0x0000000000000000        0x0 C:/sviluppo/ESP8266/projects/ESPWebFramework/../../SDK/esp_iot_rtos_sdk-master/lib\libwpa.a(ap_config.o)
 .bss           0x0000000000000000        0x0 C:/sviluppo/ESP8266/projects/ESPWebFramework/../../SDK/esp_iot_rtos_sdk-master/lib\libwpa.a(ap_config.o)
 .xt.lit        0x0000000000000000       0x40 C:/sviluppo/ESP8266/projects/ESPWebFramework/../../SDK/esp_iot_rtos_sdk-master/lib\libwpa.a(ap_config.o)
 .xt.prop       0x0000000000000000      0x2ac C:/sviluppo/ESP8266/projects/ESPWebFramework/../../SDK/esp_iot_rtos_sdk-master/lib\libwpa.a(ap_config.o)
 .irom0.literal
                0x0000000000000000        0x0 C:/sviluppo/ESP8266/projects/ESPWebFramework/../../SDK/esp_iot_rtos_sdk-master/lib\libwpa.a(common.o)
 .text          0x0000000000000000        0x0 C:/sviluppo/ESP8266/projects/ESPWebFramework/../../SDK/esp_iot_rtos_sdk-master/lib\libwpa.a(common.o)
 .data          0x0000000000000000        0x0 C:/sviluppo/ESP8266/projects/ESPWebFramework/../../SDK/esp_iot_rtos_sdk-master/lib\libwpa.a(common.o)
 .bss           0x0000000000000000        0x0 C:/sviluppo/ESP8266/projects/ESPWebFramework/../../SDK/esp_iot_rtos_sdk-master/lib\libwpa.a(common.o)
 .xt.lit        0x0000000000000000       0x10 C:/sviluppo/ESP8266/projects/ESPWebFramework/../../SDK/esp_iot_rtos_sdk-master/lib\libwpa.a(common.o)
 .xt.prop       0x0000000000000000      0x1d4 C:/sviluppo/ESP8266/projects/ESPWebFramework/../../SDK/esp_iot_rtos_sdk-master/lib\libwpa.a(common.o)
 .irom0.literal
                0x0000000000000000        0x0 C:/sviluppo/ESP8266/projects/ESPWebFramework/../../SDK/esp_iot_rtos_sdk-master/lib\libwpa.a(os_xtensa.o)
 .text          0x0000000000000000        0x0 C:/sviluppo/ESP8266/projects/ESPWebFramework/../../SDK/esp_iot_rtos_sdk-master/lib\libwpa.a(os_xtensa.o)
 .data          0x0000000000000000        0x0 C:/sviluppo/ESP8266/projects/ESPWebFramework/../../SDK/esp_iot_rtos_sdk-master/lib\libwpa.a(os_xtensa.o)
 .bss           0x0000000000000000        0x0 C:/sviluppo/ESP8266/projects/ESPWebFramework/../../SDK/esp_iot_rtos_sdk-master/lib\libwpa.a(os_xtensa.o)
 .xt.lit        0x0000000000000000       0x10 C:/sviluppo/ESP8266/projects/ESPWebFramework/../../SDK/esp_iot_rtos_sdk-master/lib\libwpa.a(os_xtensa.o)
 .xt.prop       0x0000000000000000       0x84 C:/sviluppo/ESP8266/projects/ESPWebFramework/../../SDK/esp_iot_rtos_sdk-master/lib\libwpa.a(os_xtensa.o)
 .irom0.literal
                0x0000000000000000        0x0 C:/sviluppo/ESP8266/projects/ESPWebFramework/../../SDK/esp_iot_rtos_sdk-master/lib\libwpa.a(sha1-pbkdf2.o)
 .text          0x0000000000000000        0x0 C:/sviluppo/ESP8266/projects/ESPWebFramework/../../SDK/esp_iot_rtos_sdk-master/lib\libwpa.a(sha1-pbkdf2.o)
 .data          0x0000000000000000        0x0 C:/sviluppo/ESP8266/projects/ESPWebFramework/../../SDK/esp_iot_rtos_sdk-master/lib\libwpa.a(sha1-pbkdf2.o)
 .bss           0x0000000000000000        0x0 C:/sviluppo/ESP8266/projects/ESPWebFramework/../../SDK/esp_iot_rtos_sdk-master/lib\libwpa.a(sha1-pbkdf2.o)
 .xt.lit        0x0000000000000000       0x10 C:/sviluppo/ESP8266/projects/ESPWebFramework/../../SDK/esp_iot_rtos_sdk-master/lib\libwpa.a(sha1-pbkdf2.o)
 .xt.prop       0x0000000000000000       0xc0 C:/sviluppo/ESP8266/projects/ESPWebFramework/../../SDK/esp_iot_rtos_sdk-master/lib\libwpa.a(sha1-pbkdf2.o)
 .literal       0x0000000000000000        0x0 C:/sviluppo/ESP8266/projects/ESPWebFramework/../../SDK/esp_iot_rtos_sdk-master/lib\libwpa.a(wpa_auth.o)
 .irom0.literal
                0x0000000000000000        0x0 C:/sviluppo/ESP8266/projects/ESPWebFramework/../../SDK/esp_iot_rtos_sdk-master/lib\libwpa.a(wpa_auth.o)
 .data          0x0000000000000000        0x0 C:/sviluppo/ESP8266/projects/ESPWebFramework/../../SDK/esp_iot_rtos_sdk-master/lib\libwpa.a(wpa_auth.o)
 .bss           0x0000000000000000        0x0 C:/sviluppo/ESP8266/projects/ESPWebFramework/../../SDK/esp_iot_rtos_sdk-master/lib\libwpa.a(wpa_auth.o)
 .rodata        0x0000000000000000       0x14 C:/sviluppo/ESP8266/projects/ESPWebFramework/../../SDK/esp_iot_rtos_sdk-master/lib\libwpa.a(wpa_auth.o)
 .xt.lit        0x0000000000000000      0x100 C:/sviluppo/ESP8266/projects/ESPWebFramework/../../SDK/esp_iot_rtos_sdk-master/lib\libwpa.a(wpa_auth.o)
 .xt.prop       0x0000000000000000     0x1578 C:/sviluppo/ESP8266/projects/ESPWebFramework/../../SDK/esp_iot_rtos_sdk-master/lib\libwpa.a(wpa_auth.o)
 .irom0.literal
                0x0000000000000000        0x0 C:/sviluppo/ESP8266/projects/ESPWebFramework/../../SDK/esp_iot_rtos_sdk-master/lib\libwpa.a(wpa_auth_ie.o)
 .text          0x0000000000000000        0x0 C:/sviluppo/ESP8266/projects/ESPWebFramework/../../SDK/esp_iot_rtos_sdk-master/lib\libwpa.a(wpa_auth_ie.o)
 .data          0x0000000000000000        0x0 C:/sviluppo/ESP8266/projects/ESPWebFramework/../../SDK/esp_iot_rtos_sdk-master/lib\libwpa.a(wpa_auth_ie.o)
 .bss           0x0000000000000000        0x0 C:/sviluppo/ESP8266/projects/ESPWebFramework/../../SDK/esp_iot_rtos_sdk-master/lib\libwpa.a(wpa_auth_ie.o)
 .xt.lit        0x0000000000000000       0x38 C:/sviluppo/ESP8266/projects/ESPWebFramework/../../SDK/esp_iot_rtos_sdk-master/lib\libwpa.a(wpa_auth_ie.o)
 .xt.prop       0x0000000000000000      0x414 C:/sviluppo/ESP8266/projects/ESPWebFramework/../../SDK/esp_iot_rtos_sdk-master/lib\libwpa.a(wpa_auth_ie.o)
 .irom0.literal
                0x0000000000000000        0x0 C:/sviluppo/ESP8266/projects/ESPWebFramework/../../SDK/esp_iot_rtos_sdk-master/lib\libwpa.a(wpa.o)
 .text          0x0000000000000000        0x0 C:/sviluppo/ESP8266/projects/ESPWebFramework/../../SDK/esp_iot_rtos_sdk-master/lib\libwpa.a(wpa.o)
 .data          0x0000000000000000        0x0 C:/sviluppo/ESP8266/projects/ESPWebFramework/../../SDK/esp_iot_rtos_sdk-master/lib\libwpa.a(wpa.o)
 .xt.lit        0x0000000000000000      0x118 C:/sviluppo/ESP8266/projects/ESPWebFramework/../../SDK/esp_iot_rtos_sdk-master/lib\libwpa.a(wpa.o)
 .xt.prop       0x0000000000000000      0xc3c C:/sviluppo/ESP8266/projects/ESPWebFramework/../../SDK/esp_iot_rtos_sdk-master/lib\libwpa.a(wpa.o)
 .irom0.literal
                0x0000000000000000        0x0 C:/sviluppo/ESP8266/projects/ESPWebFramework/../../SDK/esp_iot_rtos_sdk-master/lib\libwpa.a(wpa_common.o)
 .text          0x0000000000000000        0x0 C:/sviluppo/ESP8266/projects/ESPWebFramework/../../SDK/esp_iot_rtos_sdk-master/lib\libwpa.a(wpa_common.o)
 .data          0x0000000000000000        0x0 C:/sviluppo/ESP8266/projects/ESPWebFramework/../../SDK/esp_iot_rtos_sdk-master/lib\libwpa.a(wpa_common.o)
 .bss           0x0000000000000000        0x0 C:/sviluppo/ESP8266/projects/ESPWebFramework/../../SDK/esp_iot_rtos_sdk-master/lib\libwpa.a(wpa_common.o)
 .xt.lit        0x0000000000000000       0x60 C:/sviluppo/ESP8266/projects/ESPWebFramework/../../SDK/esp_iot_rtos_sdk-master/lib\libwpa.a(wpa_common.o)
 .xt.prop       0x0000000000000000      0x7c8 C:/sviluppo/ESP8266/projects/ESPWebFramework/../../SDK/esp_iot_rtos_sdk-master/lib\libwpa.a(wpa_common.o)
 .irom0.literal
                0x0000000000000000        0x0 C:/sviluppo/ESP8266/projects/ESPWebFramework/../../SDK/esp_iot_rtos_sdk-master/lib\libwpa.a(wpa_debug.o)
 .text          0x0000000000000000        0x0 C:/sviluppo/ESP8266/projects/ESPWebFramework/../../SDK/esp_iot_rtos_sdk-master/lib\libwpa.a(wpa_debug.o)
 .data          0x0000000000000000        0x0 C:/sviluppo/ESP8266/projects/ESPWebFramework/../../SDK/esp_iot_rtos_sdk-master/lib\libwpa.a(wpa_debug.o)
 .bss           0x0000000000000000        0x0 C:/sviluppo/ESP8266/projects/ESPWebFramework/../../SDK/esp_iot_rtos_sdk-master/lib\libwpa.a(wpa_debug.o)
 .xt.prop       0x0000000000000000       0x3c C:/sviluppo/ESP8266/projects/ESPWebFramework/../../SDK/esp_iot_rtos_sdk-master/lib\libwpa.a(wpa_debug.o)
 .irom0.literal
                0x0000000000000000        0x0 C:/sviluppo/ESP8266/projects/ESPWebFramework/../../SDK/esp_iot_rtos_sdk-master/lib\libwpa.a(wpa_ie.o)
 .text          0x0000000000000000        0x0 C:/sviluppo/ESP8266/projects/ESPWebFramework/../../SDK/esp_iot_rtos_sdk-master/lib\libwpa.a(wpa_ie.o)
 .data          0x0000000000000000        0x0 C:/sviluppo/ESP8266/projects/ESPWebFramework/../../SDK/esp_iot_rtos_sdk-master/lib\libwpa.a(wpa_ie.o)
 .bss           0x0000000000000000        0x0 C:/sviluppo/ESP8266/projects/ESPWebFramework/../../SDK/esp_iot_rtos_sdk-master/lib\libwpa.a(wpa_ie.o)
 .xt.lit        0x0000000000000000       0x18 C:/sviluppo/ESP8266/projects/ESPWebFramework/../../SDK/esp_iot_rtos_sdk-master/lib\libwpa.a(wpa_ie.o)
 .xt.prop       0x0000000000000000      0x348 C:/sviluppo/ESP8266/projects/ESPWebFramework/../../SDK/esp_iot_rtos_sdk-master/lib\libwpa.a(wpa_ie.o)
 .irom0.literal
                0x0000000000000000        0x0 C:/sviluppo/ESP8266/projects/ESPWebFramework/../../SDK/esp_iot_rtos_sdk-master/lib\libwpa.a(wpa_main.o)
 .text          0x0000000000000000        0x0 C:/sviluppo/ESP8266/projects/ESPWebFramework/../../SDK/esp_iot_rtos_sdk-master/lib\libwpa.a(wpa_main.o)
 .data          0x0000000000000000        0x0 C:/sviluppo/ESP8266/projects/ESPWebFramework/../../SDK/esp_iot_rtos_sdk-master/lib\libwpa.a(wpa_main.o)
 .bss           0x0000000000000000        0x0 C:/sviluppo/ESP8266/projects/ESPWebFramework/../../SDK/esp_iot_rtos_sdk-master/lib\libwpa.a(wpa_main.o)
 .xt.lit        0x0000000000000000       0x48 C:/sviluppo/ESP8266/projects/ESPWebFramework/../../SDK/esp_iot_rtos_sdk-master/lib\libwpa.a(wpa_main.o)
 .xt.prop       0x0000000000000000      0x21c C:/sviluppo/ESP8266/projects/ESPWebFramework/../../SDK/esp_iot_rtos_sdk-master/lib\libwpa.a(wpa_main.o)
 .irom0.literal
                0x0000000000000000        0x0 C:/sviluppo/ESP8266/projects/ESPWebFramework/../../SDK/esp_iot_rtos_sdk-master/lib\libwpa.a(wpas_glue.o)
 .text          0x0000000000000000        0x0 C:/sviluppo/ESP8266/projects/ESPWebFramework/../../SDK/esp_iot_rtos_sdk-master/lib\libwpa.a(wpas_glue.o)
 .data          0x0000000000000000        0x0 C:/sviluppo/ESP8266/projects/ESPWebFramework/../../SDK/esp_iot_rtos_sdk-master/lib\libwpa.a(wpas_glue.o)
 .bss           0x0000000000000000        0x0 C:/sviluppo/ESP8266/projects/ESPWebFramework/../../SDK/esp_iot_rtos_sdk-master/lib\libwpa.a(wpas_glue.o)
 .xt.lit        0x0000000000000000       0x10 C:/sviluppo/ESP8266/projects/ESPWebFramework/../../SDK/esp_iot_rtos_sdk-master/lib\libwpa.a(wpas_glue.o)
 .xt.prop       0x0000000000000000      0x108 C:/sviluppo/ESP8266/projects/ESPWebFramework/../../SDK/esp_iot_rtos_sdk-master/lib\libwpa.a(wpas_glue.o)
 .irom0.literal
                0x0000000000000000        0x0 C:/sviluppo/ESP8266/projects/ESPWebFramework/../../SDK/esp_iot_rtos_sdk-master/lib\libwpa.a(aes-unwrap.o)
 .text          0x0000000000000000        0x0 C:/sviluppo/ESP8266/projects/ESPWebFramework/../../SDK/esp_iot_rtos_sdk-master/lib\libwpa.a(aes-unwrap.o)
 .data          0x0000000000000000        0x0 C:/sviluppo/ESP8266/projects/ESPWebFramework/../../SDK/esp_iot_rtos_sdk-master/lib\libwpa.a(aes-unwrap.o)
 .bss           0x0000000000000000        0x0 C:/sviluppo/ESP8266/projects/ESPWebFramework/../../SDK/esp_iot_rtos_sdk-master/lib\libwpa.a(aes-unwrap.o)
 .xt.lit        0x0000000000000000        0x8 C:/sviluppo/ESP8266/projects/ESPWebFramework/../../SDK/esp_iot_rtos_sdk-master/lib\libwpa.a(aes-unwrap.o)
 .xt.prop       0x0000000000000000       0x6c C:/sviluppo/ESP8266/projects/ESPWebFramework/../../SDK/esp_iot_rtos_sdk-master/lib\libwpa.a(aes-unwrap.o)
 .irom0.literal
                0x0000000000000000        0x0 C:/sviluppo/ESP8266/projects/ESPWebFramework/../../SDK/esp_iot_rtos_sdk-master/lib\libwpa.a(aes-wrap.o)
 .text          0x0000000000000000        0x0 C:/sviluppo/ESP8266/projects/ESPWebFramework/../../SDK/esp_iot_rtos_sdk-master/lib\libwpa.a(aes-wrap.o)
 .data          0x0000000000000000        0x0 C:/sviluppo/ESP8266/projects/ESPWebFramework/../../SDK/esp_iot_rtos_sdk-master/lib\libwpa.a(aes-wrap.o)
 .bss           0x0000000000000000        0x0 C:/sviluppo/ESP8266/projects/ESPWebFramework/../../SDK/esp_iot_rtos_sdk-master/lib\libwpa.a(aes-wrap.o)
 .xt.lit        0x0000000000000000        0x8 C:/sviluppo/ESP8266/projects/ESPWebFramework/../../SDK/esp_iot_rtos_sdk-master/lib\libwpa.a(aes-wrap.o)
 .xt.prop       0x0000000000000000       0x60 C:/sviluppo/ESP8266/projects/ESPWebFramework/../../SDK/esp_iot_rtos_sdk-master/lib\libwpa.a(aes-wrap.o)
 .irom0.literal
                0x0000000000000000        0x0 C:/sviluppo/ESP8266/projects/ESPWebFramework/../../SDK/esp_iot_rtos_sdk-master/lib\libwpa.a(md5.o)
 .text          0x0000000000000000        0x0 C:/sviluppo/ESP8266/projects/ESPWebFramework/../../SDK/esp_iot_rtos_sdk-master/lib\libwpa.a(md5.o)
 .data          0x0000000000000000        0x0 C:/sviluppo/ESP8266/projects/ESPWebFramework/../../SDK/esp_iot_rtos_sdk-master/lib\libwpa.a(md5.o)
 .bss           0x0000000000000000        0x0 C:/sviluppo/ESP8266/projects/ESPWebFramework/../../SDK/esp_iot_rtos_sdk-master/lib\libwpa.a(md5.o)
 .xt.lit        0x0000000000000000        0x8 C:/sviluppo/ESP8266/projects/ESPWebFramework/../../SDK/esp_iot_rtos_sdk-master/lib\libwpa.a(md5.o)
 .xt.prop       0x0000000000000000       0xa8 C:/sviluppo/ESP8266/projects/ESPWebFramework/../../SDK/esp_iot_rtos_sdk-master/lib\libwpa.a(md5.o)
 .irom0.literal
                0x0000000000000000        0x0 C:/sviluppo/ESP8266/projects/ESPWebFramework/../../SDK/esp_iot_rtos_sdk-master/lib\libwpa.a(md5-internal.o)
 .text          0x0000000000000000        0x0 C:/sviluppo/ESP8266/projects/ESPWebFramework/../../SDK/esp_iot_rtos_sdk-master/lib\libwpa.a(md5-internal.o)
 .data          0x0000000000000000        0x0 C:/sviluppo/ESP8266/projects/ESPWebFramework/../../SDK/esp_iot_rtos_sdk-master/lib\libwpa.a(md5-internal.o)
 .bss           0x0000000000000000        0x0 C:/sviluppo/ESP8266/projects/ESPWebFramework/../../SDK/esp_iot_rtos_sdk-master/lib\libwpa.a(md5-internal.o)
 .xt.lit        0x0000000000000000       0x20 C:/sviluppo/ESP8266/projects/ESPWebFramework/../../SDK/esp_iot_rtos_sdk-master/lib\libwpa.a(md5-internal.o)
 .xt.prop       0x0000000000000000      0x144 C:/sviluppo/ESP8266/projects/ESPWebFramework/../../SDK/esp_iot_rtos_sdk-master/lib\libwpa.a(md5-internal.o)
 .irom0.literal
                0x0000000000000000        0x0 C:/sviluppo/ESP8266/projects/ESPWebFramework/../../SDK/esp_iot_rtos_sdk-master/lib\libwpa.a(rc4.o)
 .text          0x0000000000000000        0x0 C:/sviluppo/ESP8266/projects/ESPWebFramework/../../SDK/esp_iot_rtos_sdk-master/lib\libwpa.a(rc4.o)
 .data          0x0000000000000000        0x0 C:/sviluppo/ESP8266/projects/ESPWebFramework/../../SDK/esp_iot_rtos_sdk-master/lib\libwpa.a(rc4.o)
 .bss           0x0000000000000000        0x0 C:/sviluppo/ESP8266/projects/ESPWebFramework/../../SDK/esp_iot_rtos_sdk-master/lib\libwpa.a(rc4.o)
 .xt.prop       0x0000000000000000       0x84 C:/sviluppo/ESP8266/projects/ESPWebFramework/../../SDK/esp_iot_rtos_sdk-master/lib\libwpa.a(rc4.o)
 .irom0.literal
                0x0000000000000000        0x0 C:/sviluppo/ESP8266/projects/ESPWebFramework/../../SDK/esp_iot_rtos_sdk-master/lib\libwpa.a(sha1.o)
 .text          0x0000000000000000        0x0 C:/sviluppo/ESP8266/projects/ESPWebFramework/../../SDK/esp_iot_rtos_sdk-master/lib\libwpa.a(sha1.o)
 .data          0x0000000000000000        0x0 C:/sviluppo/ESP8266/projects/ESPWebFramework/../../SDK/esp_iot_rtos_sdk-master/lib\libwpa.a(sha1.o)
 .bss           0x0000000000000000        0x0 C:/sviluppo/ESP8266/projects/ESPWebFramework/../../SDK/esp_iot_rtos_sdk-master/lib\libwpa.a(sha1.o)
 .xt.lit        0x0000000000000000       0x10 C:/sviluppo/ESP8266/projects/ESPWebFramework/../../SDK/esp_iot_rtos_sdk-master/lib\libwpa.a(sha1.o)
 .xt.prop       0x0000000000000000      0x108 C:/sviluppo/ESP8266/projects/ESPWebFramework/../../SDK/esp_iot_rtos_sdk-master/lib\libwpa.a(sha1.o)
 .irom0.literal
                0x0000000000000000        0x0 C:/sviluppo/ESP8266/projects/ESPWebFramework/../../SDK/esp_iot_rtos_sdk-master/lib\libwpa.a(sha1-internal.o)
 .text          0x0000000000000000        0x0 C:/sviluppo/ESP8266/projects/ESPWebFramework/../../SDK/esp_iot_rtos_sdk-master/lib\libwpa.a(sha1-internal.o)
 .data          0x0000000000000000        0x0 C:/sviluppo/ESP8266/projects/ESPWebFramework/../../SDK/esp_iot_rtos_sdk-master/lib\libwpa.a(sha1-internal.o)
 .bss           0x0000000000000000        0x0 C:/sviluppo/ESP8266/projects/ESPWebFramework/../../SDK/esp_iot_rtos_sdk-master/lib\libwpa.a(sha1-internal.o)
 .xt.lit        0x0000000000000000       0x20 C:/sviluppo/ESP8266/projects/ESPWebFramework/../../SDK/esp_iot_rtos_sdk-master/lib\libwpa.a(sha1-internal.o)
 .xt.prop       0x0000000000000000      0x150 C:/sviluppo/ESP8266/projects/ESPWebFramework/../../SDK/esp_iot_rtos_sdk-master/lib\libwpa.a(sha1-internal.o)
 .irom0.literal
                0x0000000000000000        0x0 C:/sviluppo/ESP8266/projects/ESPWebFramework/../../SDK/esp_iot_rtos_sdk-master/lib\libwpa.a(aes-internal-dec.o)
 .text          0x0000000000000000        0x0 C:/sviluppo/ESP8266/projects/ESPWebFramework/../../SDK/esp_iot_rtos_sdk-master/lib\libwpa.a(aes-internal-dec.o)
 .data          0x0000000000000000        0x0 C:/sviluppo/ESP8266/projects/ESPWebFramework/../../SDK/esp_iot_rtos_sdk-master/lib\libwpa.a(aes-internal-dec.o)
 .xt.lit        0x0000000000000000       0x20 C:/sviluppo/ESP8266/projects/ESPWebFramework/../../SDK/esp_iot_rtos_sdk-master/lib\libwpa.a(aes-internal-dec.o)
 .xt.prop       0x0000000000000000      0x114 C:/sviluppo/ESP8266/projects/ESPWebFramework/../../SDK/esp_iot_rtos_sdk-master/lib\libwpa.a(aes-internal-dec.o)
 .irom0.literal
                0x0000000000000000        0x0 C:/sviluppo/ESP8266/projects/ESPWebFramework/../../SDK/esp_iot_rtos_sdk-master/lib\libwpa.a(aes-internal-enc.o)
 .text          0x0000000000000000        0x0 C:/sviluppo/ESP8266/projects/ESPWebFramework/../../SDK/esp_iot_rtos_sdk-master/lib\libwpa.a(aes-internal-enc.o)
 .data          0x0000000000000000        0x0 C:/sviluppo/ESP8266/projects/ESPWebFramework/../../SDK/esp_iot_rtos_sdk-master/lib\libwpa.a(aes-internal-enc.o)
 .bss           0x0000000000000000        0x0 C:/sviluppo/ESP8266/projects/ESPWebFramework/../../SDK/esp_iot_rtos_sdk-master/lib\libwpa.a(aes-internal-enc.o)
 .xt.lit        0x0000000000000000       0x18 C:/sviluppo/ESP8266/projects/ESPWebFramework/../../SDK/esp_iot_rtos_sdk-master/lib\libwpa.a(aes-internal-enc.o)
 .xt.prop       0x0000000000000000       0xcc C:/sviluppo/ESP8266/projects/ESPWebFramework/../../SDK/esp_iot_rtos_sdk-master/lib\libwpa.a(aes-internal-enc.o)
 .irom0.literal
                0x0000000000000000        0x0 C:/sviluppo/ESP8266/projects/ESPWebFramework/../../SDK/esp_iot_rtos_sdk-master/lib\libwpa.a(aes-internal.o)
 .text          0x0000000000000000        0x0 C:/sviluppo/ESP8266/projects/ESPWebFramework/../../SDK/esp_iot_rtos_sdk-master/lib\libwpa.a(aes-internal.o)
 .data          0x0000000000000000        0x0 C:/sviluppo/ESP8266/projects/ESPWebFramework/../../SDK/esp_iot_rtos_sdk-master/lib\libwpa.a(aes-internal.o)
 .bss           0x0000000000000000        0x0 C:/sviluppo/ESP8266/projects/ESPWebFramework/../../SDK/esp_iot_rtos_sdk-master/lib\libwpa.a(aes-internal.o)
 .xt.lit        0x0000000000000000        0x8 C:/sviluppo/ESP8266/projects/ESPWebFramework/../../SDK/esp_iot_rtos_sdk-master/lib\libwpa.a(aes-internal.o)
 .xt.prop       0x0000000000000000       0x60 C:/sviluppo/ESP8266/projects/ESPWebFramework/../../SDK/esp_iot_rtos_sdk-master/lib\libwpa.a(aes-internal.o)
 .irom0.literal
                0x0000000000000000        0x0 C:/sviluppo/ESP8266/projects/ESPWebFramework/../../SDK/esp_iot_rtos_sdk-master/lib\libmain.a(libc.o)
 .literal       0x0000000000000000        0x0 C:/sviluppo/ESP8266/projects/ESPWebFramework/../../SDK/esp_iot_rtos_sdk-master/lib\libmain.a(libc.o)
 .xt.lit        0x0000000000000000       0x30 C:/sviluppo/ESP8266/projects/ESPWebFramework/../../SDK/esp_iot_rtos_sdk-master/lib\libmain.a(libc.o)
 .xt.prop       0x0000000000000000      0x498 C:/sviluppo/ESP8266/projects/ESPWebFramework/../../SDK/esp_iot_rtos_sdk-master/lib\libmain.a(libc.o)
 .irom0.literal
                0x0000000000000000        0x0 C:/sviluppo/ESP8266/projects/ESPWebFramework/../../SDK/esp_iot_rtos_sdk-master/lib\liblwip.a(ethernetif.o)
 .text          0x0000000000000000        0x0 C:/sviluppo/ESP8266/projects/ESPWebFramework/../../SDK/esp_iot_rtos_sdk-master/lib\liblwip.a(ethernetif.o)
 .data          0x0000000000000000        0x0 C:/sviluppo/ESP8266/projects/ESPWebFramework/../../SDK/esp_iot_rtos_sdk-master/lib\liblwip.a(ethernetif.o)
 .bss           0x0000000000000000        0x0 C:/sviluppo/ESP8266/projects/ESPWebFramework/../../SDK/esp_iot_rtos_sdk-master/lib\liblwip.a(ethernetif.o)
 .xt.lit        0x0000000000000000       0x18 C:/sviluppo/ESP8266/projects/ESPWebFramework/../../SDK/esp_iot_rtos_sdk-master/lib\liblwip.a(ethernetif.o)
 .xt.prop       0x0000000000000000       0xc0 C:/sviluppo/ESP8266/projects/ESPWebFramework/../../SDK/esp_iot_rtos_sdk-master/lib\liblwip.a(ethernetif.o)
 .data          0x0000000000000000        0x0 c:/sviluppo/esp8266/sdk/xtensa-lx106-elf/bin/../lib/gcc/xtensa-lx106-elf/4.8.2\libgcc.a(_modsi3.o)
 .bss           0x0000000000000000        0x0 c:/sviluppo/esp8266/sdk/xtensa-lx106-elf/bin/../lib/gcc/xtensa-lx106-elf/4.8.2\libgcc.a(_modsi3.o)
 .xt.prop       0x0000000000000000       0x84 c:/sviluppo/esp8266/sdk/xtensa-lx106-elf/bin/../lib/gcc/xtensa-lx106-elf/4.8.2\libgcc.a(_modsi3.o)
 .data          0x0000000000000000        0x0 c:/sviluppo/esp8266/sdk/xtensa-lx106-elf/bin/../lib/gcc/xtensa-lx106-elf/4.8.2\libgcc.a(_ashrdi3.o)
 .bss           0x0000000000000000        0x0 c:/sviluppo/esp8266/sdk/xtensa-lx106-elf/bin/../lib/gcc/xtensa-lx106-elf/4.8.2\libgcc.a(_ashrdi3.o)
 .xt.prop       0x0000000000000000       0x3c c:/sviluppo/esp8266/sdk/xtensa-lx106-elf/bin/../lib/gcc/xtensa-lx106-elf/4.8.2\libgcc.a(_ashrdi3.o)
 .data          0x0000000000000000        0x0 c:/sviluppo/esp8266/sdk/xtensa-lx106-elf/bin/../lib/gcc/xtensa-lx106-elf/4.8.2\libgcc.a(_addsubsf3.o)
 .bss           0x0000000000000000        0x0 c:/sviluppo/esp8266/sdk/xtensa-lx106-elf/bin/../lib/gcc/xtensa-lx106-elf/4.8.2\libgcc.a(_addsubsf3.o)
 .xt.lit        0x0000000000000000        0x8 c:/sviluppo/esp8266/sdk/xtensa-lx106-elf/bin/../lib/gcc/xtensa-lx106-elf/4.8.2\libgcc.a(_addsubsf3.o)
 .xt.prop       0x0000000000000000      0x2e8 c:/sviluppo/esp8266/sdk/xtensa-lx106-elf/bin/../lib/gcc/xtensa-lx106-elf/4.8.2\libgcc.a(_addsubsf3.o)
 .data          0x0000000000000000        0x0 c:/sviluppo/esp8266/sdk/xtensa-lx106-elf/bin/../lib/gcc/xtensa-lx106-elf/4.8.2\libgcc.a(_mulsf3.o)
 .bss           0x0000000000000000        0x0 c:/sviluppo/esp8266/sdk/xtensa-lx106-elf/bin/../lib/gcc/xtensa-lx106-elf/4.8.2\libgcc.a(_mulsf3.o)
 .xt.lit        0x0000000000000000        0x8 c:/sviluppo/esp8266/sdk/xtensa-lx106-elf/bin/../lib/gcc/xtensa-lx106-elf/4.8.2\libgcc.a(_mulsf3.o)
 .xt.prop       0x0000000000000000      0x168 c:/sviluppo/esp8266/sdk/xtensa-lx106-elf/bin/../lib/gcc/xtensa-lx106-elf/4.8.2\libgcc.a(_mulsf3.o)
 .data          0x0000000000000000        0x0 c:/sviluppo/esp8266/sdk/xtensa-lx106-elf/bin/../lib/gcc/xtensa-lx106-elf/4.8.2\libgcc.a(_divsf3.o)
 .bss           0x0000000000000000        0x0 c:/sviluppo/esp8266/sdk/xtensa-lx106-elf/bin/../lib/gcc/xtensa-lx106-elf/4.8.2\libgcc.a(_divsf3.o)
 .xt.lit        0x0000000000000000        0x8 c:/sviluppo/esp8266/sdk/xtensa-lx106-elf/bin/../lib/gcc/xtensa-lx106-elf/4.8.2\libgcc.a(_divsf3.o)
 .xt.prop       0x0000000000000000      0x168 c:/sviluppo/esp8266/sdk/xtensa-lx106-elf/bin/../lib/gcc/xtensa-lx106-elf/4.8.2\libgcc.a(_divsf3.o)
 .data          0x0000000000000000        0x0 c:/sviluppo/esp8266/sdk/xtensa-lx106-elf/bin/../lib/gcc/xtensa-lx106-elf/4.8.2\libgcc.a(_fixsfsi.o)
 .bss           0x0000000000000000        0x0 c:/sviluppo/esp8266/sdk/xtensa-lx106-elf/bin/../lib/gcc/xtensa-lx106-elf/4.8.2\libgcc.a(_fixsfsi.o)
 .xt.lit        0x0000000000000000        0x8 c:/sviluppo/esp8266/sdk/xtensa-lx106-elf/bin/../lib/gcc/xtensa-lx106-elf/4.8.2\libgcc.a(_fixsfsi.o)
 .xt.prop       0x0000000000000000       0x6c c:/sviluppo/esp8266/sdk/xtensa-lx106-elf/bin/../lib/gcc/xtensa-lx106-elf/4.8.2\libgcc.a(_fixsfsi.o)
 .data          0x0000000000000000        0x0 c:/sviluppo/esp8266/sdk/xtensa-lx106-elf/bin/../lib/gcc/xtensa-lx106-elf/4.8.2\libgcc.a(_fixunssfsi.o)
 .bss           0x0000000000000000        0x0 c:/sviluppo/esp8266/sdk/xtensa-lx106-elf/bin/../lib/gcc/xtensa-lx106-elf/4.8.2\libgcc.a(_fixunssfsi.o)
 .xt.lit        0x0000000000000000        0x8 c:/sviluppo/esp8266/sdk/xtensa-lx106-elf/bin/../lib/gcc/xtensa-lx106-elf/4.8.2\libgcc.a(_fixunssfsi.o)
 .xt.prop       0x0000000000000000       0xa8 c:/sviluppo/esp8266/sdk/xtensa-lx106-elf/bin/../lib/gcc/xtensa-lx106-elf/4.8.2\libgcc.a(_fixunssfsi.o)
 .data          0x0000000000000000        0x0 c:/sviluppo/esp8266/sdk/xtensa-lx106-elf/bin/../lib/gcc/xtensa-lx106-elf/4.8.2\libgcc.a(_floatsisf.o)
 .bss           0x0000000000000000        0x0 c:/sviluppo/esp8266/sdk/xtensa-lx106-elf/bin/../lib/gcc/xtensa-lx106-elf/4.8.2\libgcc.a(_floatsisf.o)
 .xt.prop       0x0000000000000000       0x60 c:/sviluppo/esp8266/sdk/xtensa-lx106-elf/bin/../lib/gcc/xtensa-lx106-elf/4.8.2\libgcc.a(_floatsisf.o)
 .data          0x0000000000000000        0x0 c:/sviluppo/esp8266/sdk/xtensa-lx106-elf/bin/../lib/gcc/xtensa-lx106-elf/4.8.2\libgcc.a(_addsubdf3.o)
 .bss           0x0000000000000000        0x0 c:/sviluppo/esp8266/sdk/xtensa-lx106-elf/bin/../lib/gcc/xtensa-lx106-elf/4.8.2\libgcc.a(_addsubdf3.o)
 .xt.lit        0x0000000000000000        0x8 c:/sviluppo/esp8266/sdk/xtensa-lx106-elf/bin/../lib/gcc/xtensa-lx106-elf/4.8.2\libgcc.a(_addsubdf3.o)
 .xt.prop       0x0000000000000000      0x408 c:/sviluppo/esp8266/sdk/xtensa-lx106-elf/bin/../lib/gcc/xtensa-lx106-elf/4.8.2\libgcc.a(_addsubdf3.o)
 .data          0x0000000000000000        0x0 c:/sviluppo/esp8266/sdk/xtensa-lx106-elf/bin/../lib/gcc/xtensa-lx106-elf/4.8.2\libgcc.a(_muldf3.o)
 .bss           0x0000000000000000        0x0 c:/sviluppo/esp8266/sdk/xtensa-lx106-elf/bin/../lib/gcc/xtensa-lx106-elf/4.8.2\libgcc.a(_muldf3.o)
 .xt.lit        0x0000000000000000        0x8 c:/sviluppo/esp8266/sdk/xtensa-lx106-elf/bin/../lib/gcc/xtensa-lx106-elf/4.8.2\libgcc.a(_muldf3.o)
 .xt.prop       0x0000000000000000      0x294 c:/sviluppo/esp8266/sdk/xtensa-lx106-elf/bin/../lib/gcc/xtensa-lx106-elf/4.8.2\libgcc.a(_muldf3.o)
 .data          0x0000000000000000        0x0 c:/sviluppo/esp8266/sdk/xtensa-lx106-elf/bin/../lib/gcc/xtensa-lx106-elf/4.8.2\libgcc.a(_divdf3.o)
 .bss           0x0000000000000000        0x0 c:/sviluppo/esp8266/sdk/xtensa-lx106-elf/bin/../lib/gcc/xtensa-lx106-elf/4.8.2\libgcc.a(_divdf3.o)
 .xt.lit        0x0000000000000000        0x8 c:/sviluppo/esp8266/sdk/xtensa-lx106-elf/bin/../lib/gcc/xtensa-lx106-elf/4.8.2\libgcc.a(_divdf3.o)
 .xt.prop       0x0000000000000000      0x264 c:/sviluppo/esp8266/sdk/xtensa-lx106-elf/bin/../lib/gcc/xtensa-lx106-elf/4.8.2\libgcc.a(_divdf3.o)
 .data          0x0000000000000000        0x0 c:/sviluppo/esp8266/sdk/xtensa-lx106-elf/bin/../lib/gcc/xtensa-lx106-elf/4.8.2\libgcc.a(_fixdfsi.o)
 .bss           0x0000000000000000        0x0 c:/sviluppo/esp8266/sdk/xtensa-lx106-elf/bin/../lib/gcc/xtensa-lx106-elf/4.8.2\libgcc.a(_fixdfsi.o)
 .xt.lit        0x0000000000000000        0x8 c:/sviluppo/esp8266/sdk/xtensa-lx106-elf/bin/../lib/gcc/xtensa-lx106-elf/4.8.2\libgcc.a(_fixdfsi.o)
 .xt.prop       0x0000000000000000       0x6c c:/sviluppo/esp8266/sdk/xtensa-lx106-elf/bin/../lib/gcc/xtensa-lx106-elf/4.8.2\libgcc.a(_fixdfsi.o)
 .data          0x0000000000000000        0x0 c:/sviluppo/esp8266/sdk/xtensa-lx106-elf/bin/../lib/gcc/xtensa-lx106-elf/4.8.2\libgcc.a(_floatsidf.o)
 .bss           0x0000000000000000        0x0 c:/sviluppo/esp8266/sdk/xtensa-lx106-elf/bin/../lib/gcc/xtensa-lx106-elf/4.8.2\libgcc.a(_floatsidf.o)
 .xt.prop       0x0000000000000000       0x54 c:/sviluppo/esp8266/sdk/xtensa-lx106-elf/bin/../lib/gcc/xtensa-lx106-elf/4.8.2\libgcc.a(_floatsidf.o)
 .data          0x0000000000000000        0x0 c:/sviluppo/esp8266/sdk/xtensa-lx106-elf/bin/../lib/gcc/xtensa-lx106-elf/4.8.2\libgcc.a(_truncdfsf2.o)
 .bss           0x0000000000000000        0x0 c:/sviluppo/esp8266/sdk/xtensa-lx106-elf/bin/../lib/gcc/xtensa-lx106-elf/4.8.2\libgcc.a(_truncdfsf2.o)
 .xt.lit        0x0000000000000000        0x8 c:/sviluppo/esp8266/sdk/xtensa-lx106-elf/bin/../lib/gcc/xtensa-lx106-elf/4.8.2\libgcc.a(_truncdfsf2.o)
 .xt.prop       0x0000000000000000       0xb4 c:/sviluppo/esp8266/sdk/xtensa-lx106-elf/bin/../lib/gcc/xtensa-lx106-elf/4.8.2\libgcc.a(_truncdfsf2.o)
 .data          0x0000000000000000        0x0 c:/sviluppo/esp8266/sdk/xtensa-lx106-elf/bin/../lib/gcc/xtensa-lx106-elf/4.8.2\libgcc.a(_extendsfdf2.o)
 .bss           0x0000000000000000        0x0 c:/sviluppo/esp8266/sdk/xtensa-lx106-elf/bin/../lib/gcc/xtensa-lx106-elf/4.8.2\libgcc.a(_extendsfdf2.o)
 .xt.lit        0x0000000000000000        0x8 c:/sviluppo/esp8266/sdk/xtensa-lx106-elf/bin/../lib/gcc/xtensa-lx106-elf/4.8.2\libgcc.a(_extendsfdf2.o)
 .xt.prop       0x0000000000000000       0x6c c:/sviluppo/esp8266/sdk/xtensa-lx106-elf/bin/../lib/gcc/xtensa-lx106-elf/4.8.2\libgcc.a(_extendsfdf2.o)
 .data          0x0000000000000000        0x0 c:/sviluppo/esp8266/sdk/xtensa-lx106-elf/bin/../lib/gcc/xtensa-lx106-elf/4.8.2\libgcc.a(_muldi3.o)
 .bss           0x0000000000000000        0x0 c:/sviluppo/esp8266/sdk/xtensa-lx106-elf/bin/../lib/gcc/xtensa-lx106-elf/4.8.2\libgcc.a(_muldi3.o)
 .xt.lit        0x0000000000000000        0x8 c:/sviluppo/esp8266/sdk/xtensa-lx106-elf/bin/../lib/gcc/xtensa-lx106-elf/4.8.2\libgcc.a(_muldi3.o)
 .xt.prop       0x0000000000000000       0x30 c:/sviluppo/esp8266/sdk/xtensa-lx106-elf/bin/../lib/gcc/xtensa-lx106-elf/4.8.2\libgcc.a(_muldi3.o)
 .data          0x0000000000000000        0x0 c:/sviluppo/esp8266/sdk/xtensa-lx106-elf/bin/../lib/gcc/xtensa-lx106-elf/4.8.2\libgcc.a(_popcountsi2.o)
 .bss           0x0000000000000000        0x0 c:/sviluppo/esp8266/sdk/xtensa-lx106-elf/bin/../lib/gcc/xtensa-lx106-elf/4.8.2\libgcc.a(_popcountsi2.o)
 .xt.lit        0x0000000000000000        0x8 c:/sviluppo/esp8266/sdk/xtensa-lx106-elf/bin/../lib/gcc/xtensa-lx106-elf/4.8.2\libgcc.a(_popcountsi2.o)
 .xt.prop       0x0000000000000000       0x3c c:/sviluppo/esp8266/sdk/xtensa-lx106-elf/bin/../lib/gcc/xtensa-lx106-elf/4.8.2\libgcc.a(_popcountsi2.o)
 .data          0x0000000000000000        0x0 c:/sviluppo/esp8266/sdk/xtensa-lx106-elf/bin/../lib/gcc/xtensa-lx106-elf/4.8.2\libgcc.a(_divdi3.o)
 .bss           0x0000000000000000        0x0 c:/sviluppo/esp8266/sdk/xtensa-lx106-elf/bin/../lib/gcc/xtensa-lx106-elf/4.8.2\libgcc.a(_divdi3.o)
 .eh_frame      0x0000000000000000       0x30 c:/sviluppo/esp8266/sdk/xtensa-lx106-elf/bin/../lib/gcc/xtensa-lx106-elf/4.8.2\libgcc.a(_divdi3.o)
 .xt.lit        0x0000000000000000        0x8 c:/sviluppo/esp8266/sdk/xtensa-lx106-elf/bin/../lib/gcc/xtensa-lx106-elf/4.8.2\libgcc.a(_divdi3.o)
 .xt.prop       0x0000000000000000      0x204 c:/sviluppo/esp8266/sdk/xtensa-lx106-elf/bin/../lib/gcc/xtensa-lx106-elf/4.8.2\libgcc.a(_divdi3.o)
 .data          0x0000000000000000        0x0 c:/sviluppo/esp8266/sdk/xtensa-lx106-elf/bin/../lib/gcc/xtensa-lx106-elf/4.8.2\libgcc.a(_umoddi3.o)
 .bss           0x0000000000000000        0x0 c:/sviluppo/esp8266/sdk/xtensa-lx106-elf/bin/../lib/gcc/xtensa-lx106-elf/4.8.2\libgcc.a(_umoddi3.o)
 .eh_frame      0x0000000000000000       0x30 c:/sviluppo/esp8266/sdk/xtensa-lx106-elf/bin/../lib/gcc/xtensa-lx106-elf/4.8.2\libgcc.a(_umoddi3.o)
 .xt.lit        0x0000000000000000        0x8 c:/sviluppo/esp8266/sdk/xtensa-lx106-elf/bin/../lib/gcc/xtensa-lx106-elf/4.8.2\libgcc.a(_umoddi3.o)
 .xt.prop       0x0000000000000000      0x150 c:/sviluppo/esp8266/sdk/xtensa-lx106-elf/bin/../lib/gcc/xtensa-lx106-elf/4.8.2\libgcc.a(_umoddi3.o)
 .data          0x0000000000000000        0x0 c:/sviluppo/esp8266/sdk/xtensa-lx106-elf/bin/../lib/gcc/xtensa-lx106-elf/4.8.2\libgcc.a(_umulsidi3.o)
 .bss           0x0000000000000000        0x0 c:/sviluppo/esp8266/sdk/xtensa-lx106-elf/bin/../lib/gcc/xtensa-lx106-elf/4.8.2\libgcc.a(_umulsidi3.o)
 .xt.prop       0x0000000000000000       0x3c c:/sviluppo/esp8266/sdk/xtensa-lx106-elf/bin/../lib/gcc/xtensa-lx106-elf/4.8.2\libgcc.a(_umulsidi3.o)
 .text          0x0000000000000000        0x0 c:/sviluppo/esp8266/sdk/xtensa-lx106-elf/bin/../lib/gcc/xtensa-lx106-elf/4.8.2\libgcc.a(_popcount_tab.o)
 .data          0x0000000000000000        0x0 c:/sviluppo/esp8266/sdk/xtensa-lx106-elf/bin/../lib/gcc/xtensa-lx106-elf/4.8.2\libgcc.a(_popcount_tab.o)
 .bss           0x0000000000000000        0x0 c:/sviluppo/esp8266/sdk/xtensa-lx106-elf/bin/../lib/gcc/xtensa-lx106-elf/4.8.2\libgcc.a(_popcount_tab.o)
 .xt.prop       0x0000000000000000        0xc c:/sviluppo/esp8266/sdk/xtensa-lx106-elf/bin/../lib/gcc/xtensa-lx106-elf/4.8.2\libgcc.a(_popcount_tab.o)
 .data          0x0000000000000000        0x0 c:/sviluppo/esp8266/sdk/xtensa-lx106-elf/bin/../lib/gcc/xtensa-lx106-elf/4.8.2/../../../../xtensa-lx106-elf/lib\libcirom.a(lib_a-strncpy.o)
 .bss           0x0000000000000000        0x0 c:/sviluppo/esp8266/sdk/xtensa-lx106-elf/bin/../lib/gcc/xtensa-lx106-elf/4.8.2/../../../../xtensa-lx106-elf/lib\libcirom.a(lib_a-strncpy.o)
 .xt.lit        0x0000000000000000        0x8 c:/sviluppo/esp8266/sdk/xtensa-lx106-elf/bin/../lib/gcc/xtensa-lx106-elf/4.8.2/../../../../xtensa-lx106-elf/lib\libcirom.a(lib_a-strncpy.o)
 .xt.prop       0x0000000000000000      0x174 c:/sviluppo/esp8266/sdk/xtensa-lx106-elf/bin/../lib/gcc/xtensa-lx106-elf/4.8.2/../../../../xtensa-lx106-elf/lib\libcirom.a(lib_a-strncpy.o)
 .irom0.literal
                0x0000000000000000        0x0 C:/sviluppo/ESP8266/projects/ESPWebFramework/../../SDK/esp_iot_rtos_sdk-master/lib\libnet80211.a(ieee80211_crypto_ccmp.o)
 .text          0x0000000000000000        0x0 C:/sviluppo/ESP8266/projects/ESPWebFramework/../../SDK/esp_iot_rtos_sdk-master/lib\libnet80211.a(ieee80211_crypto_ccmp.o)
 .bss           0x0000000000000000        0x0 C:/sviluppo/ESP8266/projects/ESPWebFramework/../../SDK/esp_iot_rtos_sdk-master/lib\libnet80211.a(ieee80211_crypto_ccmp.o)
 .xt.lit        0x0000000000000000        0x8 C:/sviluppo/ESP8266/projects/ESPWebFramework/../../SDK/esp_iot_rtos_sdk-master/lib\libnet80211.a(ieee80211_crypto_ccmp.o)
 .xt.prop       0x0000000000000000       0xc0 C:/sviluppo/ESP8266/projects/ESPWebFramework/../../SDK/esp_iot_rtos_sdk-master/lib\libnet80211.a(ieee80211_crypto_ccmp.o)
 .irom0.literal
                0x0000000000000000        0x0 C:/sviluppo/ESP8266/projects/ESPWebFramework/../../SDK/esp_iot_rtos_sdk-master/lib\libnet80211.a(ieee80211_crypto_tkip.o)
 .text          0x0000000000000000        0x0 C:/sviluppo/ESP8266/projects/ESPWebFramework/../../SDK/esp_iot_rtos_sdk-master/lib\libnet80211.a(ieee80211_crypto_tkip.o)
 .xt.lit        0x0000000000000000       0x10 C:/sviluppo/ESP8266/projects/ESPWebFramework/../../SDK/esp_iot_rtos_sdk-master/lib\libnet80211.a(ieee80211_crypto_tkip.o)
 .xt.prop       0x0000000000000000       0xe4 C:/sviluppo/ESP8266/projects/ESPWebFramework/../../SDK/esp_iot_rtos_sdk-master/lib\libnet80211.a(ieee80211_crypto_tkip.o)
 .irom0.literal
                0x0000000000000000        0x0 C:/sviluppo/ESP8266/projects/ESPWebFramework/../../SDK/esp_iot_rtos_sdk-master/lib\libnet80211.a(ieee80211_crypto_wep.o)
 .text          0x0000000000000000        0x0 C:/sviluppo/ESP8266/projects/ESPWebFramework/../../SDK/esp_iot_rtos_sdk-master/lib\libnet80211.a(ieee80211_crypto_wep.o)
 .bss           0x0000000000000000        0x0 C:/sviluppo/ESP8266/projects/ESPWebFramework/../../SDK/esp_iot_rtos_sdk-master/lib\libnet80211.a(ieee80211_crypto_wep.o)
 .xt.lit        0x0000000000000000        0x8 C:/sviluppo/ESP8266/projects/ESPWebFramework/../../SDK/esp_iot_rtos_sdk-master/lib\libnet80211.a(ieee80211_crypto_wep.o)
 .xt.prop       0x0000000000000000       0x78 C:/sviluppo/ESP8266/projects/ESPWebFramework/../../SDK/esp_iot_rtos_sdk-master/lib\libnet80211.a(ieee80211_crypto_wep.o)

Memory Configuration

Name             Origin             Length             Attributes
dport0_0_seg     0x000000003ff00000 0x0000000000000010
dram0_0_seg      0x000000003ffe8000 0x0000000000014000
iram1_0_seg      0x0000000040100000 0x0000000000008000
irom0_0_seg      0x0000000040240000 0x000000000003c000
*default*        0x0000000000000000 0xffffffffffffffff

Linker script and memory map

START GROUP
LOAD c:/sviluppo/esp8266/sdk/xtensa-lx106-elf/bin/../lib/gcc/xtensa-lx106-elf/4.8.2\libgcc.a
LOAD c:/sviluppo/esp8266/sdk/xtensa-lx106-elf/bin/../lib/gcc/xtensa-lx106-elf/4.8.2/../../../../xtensa-lx106-elf/lib\libcirom.a
LOAD C:/sviluppo/ESP8266/projects/ESPWebFramework/../../SDK/esp_iot_rtos_sdk-master/lib\libhal.a
LOAD C:/sviluppo/ESP8266/projects/ESPWebFramework/../../SDK/esp_iot_rtos_sdk-master/lib\libphy.a
LOAD C:/sviluppo/ESP8266/projects/ESPWebFramework/../../SDK/esp_iot_rtos_sdk-master/lib\libpp.a
LOAD C:/sviluppo/ESP8266/projects/ESPWebFramework/../../SDK/esp_iot_rtos_sdk-master/lib\libnet80211.a
LOAD C:/sviluppo/ESP8266/projects/ESPWebFramework/../../SDK/esp_iot_rtos_sdk-master/lib\libwpa.a
LOAD C:/sviluppo/ESP8266/projects/ESPWebFramework/../../SDK/esp_iot_rtos_sdk-master/lib\libmain.a
LOAD C:/sviluppo/ESP8266/projects/ESPWebFramework/../../SDK/esp_iot_rtos_sdk-master/lib\libfreertos.a
LOAD C:/sviluppo/ESP8266/projects/ESPWebFramework/../../SDK/esp_iot_rtos_sdk-master/lib\liblwip.a
LOAD C:/sviluppo/ESP8266/projects/ESPWebFramework/../../SDK/esp_iot_rtos_sdk-master/lib\libudhcp.a
LOAD libuser.a
END GROUP
                0x0000000040000000                PROVIDE (_memmap_vecbase_reset, 0x40000000)
                0x0000000000000110                _memmap_cacheattr_wb_base = 0x110
                0x0000000000000110                _memmap_cacheattr_wt_base = 0x110
                0x0000000000000220                _memmap_cacheattr_bp_base = 0x220
                0x00000000fffff00f                _memmap_cacheattr_unused_mask = 0xfffff00f
                0x000000002222211f                _memmap_cacheattr_wb_trapnull = 0x2222211f
                0x000000002222211f                _memmap_cacheattr_wba_trapnull = 0x2222211f
                0x000000002222211f                _memmap_cacheattr_wbna_trapnull = 0x2222211f
                0x000000002222211f                _memmap_cacheattr_wt_trapnull = 0x2222211f
                0x000000002222222f                _memmap_cacheattr_bp_trapnull = 0x2222222f
                0x00000000fffff11f                _memmap_cacheattr_wb_strict = 0xfffff11f
                0x00000000fffff11f                _memmap_cacheattr_wt_strict = 0xfffff11f
                0x00000000fffff22f                _memmap_cacheattr_bp_strict = 0xfffff22f
                0x0000000022222112                _memmap_cacheattr_wb_allvalid = 0x22222112
                0x0000000022222112                _memmap_cacheattr_wt_allvalid = 0x22222112
                0x0000000022222222                _memmap_cacheattr_bp_allvalid = 0x22222222
                0x000000002222211f                PROVIDE (_memmap_cacheattr_reset, _memmap_cacheattr_wb_trapnull)

.dport0.rodata  0x000000003ff00000        0x0
                0x000000003ff00000                _dport0_rodata_start = ABSOLUTE (.)
 *(.dport0.rodata)
 *(.dport.rodata)
                0x000000003ff00000                _dport0_rodata_end = ABSOLUTE (.)

.dport0.literal
                0x000000003ff00000        0x0
                0x000000003ff00000                _dport0_literal_start = ABSOLUTE (.)
 *(.dport0.literal)
 *(.dport.literal)
                0x000000003ff00000                _dport0_literal_end = ABSOLUTE (.)

.dport0.data    0x000000003ff00000        0x0
                0x000000003ff00000                _dport0_data_start = ABSOLUTE (.)
 *(.dport0.data)
 *(.dport.data)
                0x000000003ff00000                _dport0_data_end = ABSOLUTE (.)

.data           0x000000003ffe8000      0x7b0
                0x000000003ffe8000                _data_start = ABSOLUTE (.)
 *(.data)
 .data          0x000000003ffe8000        0x4 C:/sviluppo/ESP8266/projects/ESPWebFramework/../../SDK/esp_iot_rtos_sdk-master/lib\libmain.a(xtensa_vectors.o)
                0x000000003ffe8000                _Pri_3_HandlerAddress
 *fill*         0x000000003ffe8004        0xc 
 .data          0x000000003ffe8010       0x80 C:/sviluppo/ESP8266/projects/ESPWebFramework/../../SDK/esp_iot_rtos_sdk-master/lib\libmain.a(app_main.o)
 .data          0x000000003ffe8090        0x4 C:/sviluppo/ESP8266/projects/ESPWebFramework/../../SDK/esp_iot_rtos_sdk-master/lib\libmain.a(misc.o)
 .data          0x000000003ffe8094       0x18 C:/sviluppo/ESP8266/projects/ESPWebFramework/../../SDK/esp_iot_rtos_sdk-master/lib\libmain.a(spi_flash.o)
                0x000000003ffe8094                flashchip
 .data          0x000000003ffe80ac        0x1 C:/sviluppo/ESP8266/projects/ESPWebFramework/../../SDK/esp_iot_rtos_sdk-master/lib\libmain.a(user_interface.o)
                0x000000003ffe80ac                dhcpc_flag
 *fill*         0x000000003ffe80ad        0x3 
 .data          0x000000003ffe80b0        0x4 C:/sviluppo/ESP8266/projects/ESPWebFramework/../../SDK/esp_iot_rtos_sdk-master/lib\libfreertos.a(tasks.o)
 .data          0x000000003ffe80b4        0x4 C:/sviluppo/ESP8266/projects/ESPWebFramework/../../SDK/esp_iot_rtos_sdk-master/lib\liblwip.a(dhcp.o)
 .data          0x000000003ffe80b8        0x8 C:/sviluppo/ESP8266/projects/ESPWebFramework/../../SDK/esp_iot_rtos_sdk-master/lib\liblwip.a(tcp.o)
 .data          0x000000003ffe80c0        0x2 C:/sviluppo/ESP8266/projects/ESPWebFramework/../../SDK/esp_iot_rtos_sdk-master/lib\liblwip.a(udp.o)
 *fill*         0x000000003ffe80c2        0x2 
 .data          0x000000003ffe80c4        0x4 libuser.a(fdvflash.o)
                0x000000003ffe80c4                fdv::FlashAllocator::s_pos
 *fill*         0x000000003ffe80c8        0x8 
 .data          0x000000003ffe80d0       0x53 C:/sviluppo/ESP8266/projects/ESPWebFramework/../../SDK/esp_iot_rtos_sdk-master/lib\libphy.a(phy_chip_v6.o)
                0x000000003ffe80d2                tx_rf_ana_gain
                0x000000003ffe80f4                tx_pwctrl_atten_init_en
                0x000000003ffe8100                rx_gain_swp
                0x000000003ffe8120                test_rffreq_txcap
 *fill*         0x000000003ffe8123        0xd 
 .data          0x000000003ffe8130       0x90 C:/sviluppo/ESP8266/projects/ESPWebFramework/../../SDK/esp_iot_rtos_sdk-master/lib\libphy.a(phy_chip_v6_cal.o)
                0x000000003ffe8130                dpd_index
                0x000000003ffe8190                dpd_db2linear
 .data          0x000000003ffe81c0        0x4 C:/sviluppo/ESP8266/projects/ESPWebFramework/../../SDK/esp_iot_rtos_sdk-master/lib\libphy.a(phy_sleep.o)
                0x000000003ffe81c0                chip_version
 .data          0x000000003ffe81c4      0x11c C:/sviluppo/ESP8266/projects/ESPWebFramework/../../SDK/esp_iot_rtos_sdk-master/lib\libphy.a(phy_chip_v5_romfunc.o)
                0x000000003ffe81c4                g_phyFuns
                0x000000003ffe81c8                g_phyFuns_instance
 .data          0x000000003ffe82e0        0x7 C:/sviluppo/ESP8266/projects/ESPWebFramework/../../SDK/esp_iot_rtos_sdk-master/lib\libphy.a(phy_chip_v5_cal_romfunc.o)
 *fill*         0x000000003ffe82e7        0x1 
 .data          0x000000003ffe82e8        0x1 C:/sviluppo/ESP8266/projects/ESPWebFramework/../../SDK/esp_iot_rtos_sdk-master/lib\libpp.a(pm.o)
 *fill*         0x000000003ffe82e9        0x3 
 .data          0x000000003ffe82ec        0x8 C:/sviluppo/ESP8266/projects/ESPWebFramework/../../SDK/esp_iot_rtos_sdk-master/lib\libpp.a(pp.o)
                0x000000003ffe82ec                noise_now
                0x000000003ffe82ed                idle_wait_ms
 *fill*         0x000000003ffe82f4        0xc 
 .data          0x000000003ffe8300       0x40 C:/sviluppo/ESP8266/projects/ESPWebFramework/../../SDK/esp_iot_rtos_sdk-master/lib\libpp.a(rate_control.o)
 .data          0x000000003ffe8340      0x22c C:/sviluppo/ESP8266/projects/ESPWebFramework/../../SDK/esp_iot_rtos_sdk-master/lib\libpp.a(trc.o)
 .data          0x000000003ffe856c        0x4 C:/sviluppo/ESP8266/projects/ESPWebFramework/../../SDK/esp_iot_rtos_sdk-master/lib\libpp.a(wdev.o)
 .data          0x000000003ffe8570      0x1a8 C:/sviluppo/ESP8266/projects/ESPWebFramework/../../SDK/esp_iot_rtos_sdk-master/lib\libnet80211.a(ieee80211_phy.o)
 *fill*         0x000000003ffe8718        0x8 
 .data          0x000000003ffe8720       0x26 C:/sviluppo/ESP8266/projects/ESPWebFramework/../../SDK/esp_iot_rtos_sdk-master/lib\libnet80211.a(ieee80211_proto.o)
                0x000000003ffe8720                ieee80211_state_name
                0x000000003ffe8740                ieee80211_addr_bcast
 *fill*         0x000000003ffe8746        0x2 
 .data          0x000000003ffe8748       0x1c C:/sviluppo/ESP8266/projects/ESPWebFramework/../../SDK/esp_iot_rtos_sdk-master/lib\libnet80211.a(ieee80211_action.o)
 .data          0x000000003ffe8764        0x4 C:/sviluppo/ESP8266/projects/ESPWebFramework/../../SDK/esp_iot_rtos_sdk-master/lib\libmain.a(libc.o)
 .data          0x000000003ffe8768       0x18 C:/sviluppo/ESP8266/projects/ESPWebFramework/../../SDK/esp_iot_rtos_sdk-master/lib\libnet80211.a(ieee80211_crypto_ccmp.o)
                0x000000003ffe8768                ccmp
 .data          0x000000003ffe8780       0x18 C:/sviluppo/ESP8266/projects/ESPWebFramework/../../SDK/esp_iot_rtos_sdk-master/lib\libnet80211.a(ieee80211_crypto_tkip.o)
                0x000000003ffe8780                tkip
 .data          0x000000003ffe8798       0x18 C:/sviluppo/ESP8266/projects/ESPWebFramework/../../SDK/esp_iot_rtos_sdk-master/lib\libnet80211.a(ieee80211_crypto_wep.o)
                0x000000003ffe8798                wep
 *(.data.*)
 *(.gnu.linkonce.d.*)
 *(.data1)
 *(.sdata)
 *(.sdata.*)
 *(.gnu.linkonce.s.*)
 *(.sdata2)
 *(.sdata2.*)
 *(.gnu.linkonce.s2.*)
 *(.jcr)
                0x000000003ffe87b0                _data_end = ABSOLUTE (.)

.rodata         0x000000003ffe87b0     0x194c
                0x000000003ffe87b0                _rodata_start = ABSOLUTE (.)
 *(.rodata)
 .rodata        0x000000003ffe87b0        0x2 C:/sviluppo/ESP8266/projects/ESPWebFramework/../../SDK/esp_iot_rtos_sdk-master/lib\libfreertos.a(heap_4.o)
 *fill*         0x000000003ffe87b2        0xe 
 .rodata        0x000000003ffe87c0       0x14 C:/sviluppo/ESP8266/projects/ESPWebFramework/../../SDK/esp_iot_rtos_sdk-master/lib\libfreertos.a(tasks.o)
 .rodata        0x000000003ffe87d4        0xc C:/sviluppo/ESP8266/projects/ESPWebFramework/../../SDK/esp_iot_rtos_sdk-master/lib\liblwip.a(etharp.o)
                0x000000003ffe87d4                ethbroadcast
                0x000000003ffe87da                ethzero
 .rodata        0x000000003ffe87e0        0x8 C:/sviluppo/ESP8266/projects/ESPWebFramework/../../SDK/esp_iot_rtos_sdk-master/lib\liblwip.a(ip4_addr.o)
                0x000000003ffe87e0                ip_addr_any
                0x000000003ffe87e4                ip_addr_broadcast
 *fill*         0x000000003ffe87e8        0x8 
 .rodata        0x000000003ffe87f0       0x1e C:/sviluppo/ESP8266/projects/ESPWebFramework/../../SDK/esp_iot_rtos_sdk-master/lib\liblwip.a(memp.o)
                0x000000003ffe87f0                memp_sizes
 *fill*         0x000000003ffe880e        0x2 
 .rodata        0x000000003ffe8810       0x5c C:/sviluppo/ESP8266/projects/ESPWebFramework/../../SDK/esp_iot_rtos_sdk-master/lib\liblwip.a(tcp.o)
                0x000000003ffe8810                tcp_pcb_lists
                0x000000003ffe8820                tcp_persist_backoff
                0x000000003ffe8830                tcp_backoff
                0x000000003ffe8840                tcp_state_str
 *fill*         0x000000003ffe886c        0x4 
 .rodata        0x000000003ffe8870       0x40 C:/sviluppo/ESP8266/projects/ESPWebFramework/../../SDK/esp_iot_rtos_sdk-master/lib\liblwip.a(sockets.o)
 .rodata        0x000000003ffe88b0        0x8 C:/sviluppo/ESP8266/projects/ESPWebFramework/../../SDK/esp_iot_rtos_sdk-master/lib\libphy.a(phy_chip_v6.o)
 *fill*         0x000000003ffe88b8        0x8 
 .rodata        0x000000003ffe88c0       0x10 C:/sviluppo/ESP8266/projects/ESPWebFramework/../../SDK/esp_iot_rtos_sdk-master/lib\libphy.a(phy_chip_v5_romfunc.o)
 .rodata        0x000000003ffe88d0        0xc C:/sviluppo/ESP8266/projects/ESPWebFramework/../../SDK/esp_iot_rtos_sdk-master/lib\libphy.a(phy_chip_v5_ana_romfunc.o)
 .rodata        0x000000003ffe88dc        0x4 C:/sviluppo/ESP8266/projects/ESPWebFramework/../../SDK/esp_iot_rtos_sdk-master/lib\libnet80211.a(ieee80211_hostap.o)
 .rodata        0x000000003ffe88e0        0x4 C:/sviluppo/ESP8266/projects/ESPWebFramework/../../SDK/esp_iot_rtos_sdk-master/lib\libnet80211.a(ieee80211_output.o)
 *fill*         0x000000003ffe88e4        0xc 
 .rodata        0x000000003ffe88f0       0x70 C:/sviluppo/ESP8266/projects/ESPWebFramework/../../SDK/esp_iot_rtos_sdk-master/lib\libnet80211.a(ieee80211_proto.o)
 .rodata        0x000000003ffe8960        0x8 C:/sviluppo/ESP8266/projects/ESPWebFramework/../../SDK/esp_iot_rtos_sdk-master/lib\libnet80211.a(wl_cnx.o)
 .rodata        0x000000003ffe8968        0x6 C:/sviluppo/ESP8266/projects/ESPWebFramework/../../SDK/esp_iot_rtos_sdk-master/lib\libwpa.a(ap_config.o)
 *fill*         0x000000003ffe896e        0x2 
 .rodata        0x000000003ffe8970        0x8 C:/sviluppo/ESP8266/projects/ESPWebFramework/../../SDK/esp_iot_rtos_sdk-master/lib\libwpa.a(wpa.o)
 *fill*         0x000000003ffe8978        0x8 
 .rodata        0x000000003ffe8980        0xc C:/sviluppo/ESP8266/projects/ESPWebFramework/../../SDK/esp_iot_rtos_sdk-master/lib\libwpa.a(wpa_common.o)
 .rodata        0x000000003ffe898c        0x2 C:/sviluppo/ESP8266/projects/ESPWebFramework/../../SDK/esp_iot_rtos_sdk-master/lib\libwpa.a(sha1-internal.o)
 *fill*         0x000000003ffe898e        0x2 
 .rodata        0x000000003ffe8990      0x910 C:/sviluppo/ESP8266/projects/ESPWebFramework/../../SDK/esp_iot_rtos_sdk-master/lib\libwpa.a(aes-internal.o)
                0x000000003ffe8990                Te0
                0x000000003ffe8d90                rcons
                0x000000003ffe8da0                Td0
                0x000000003ffe91a0                Td4s
 .rodata        0x000000003ffe92a0      0x101 C:/sviluppo/ESP8266/projects/ESPWebFramework/../../SDK/esp_iot_rtos_sdk-master/lib\libmain.a(libc.o)
                0x000000003ffe92a0                _ctype_
 *fill*         0x000000003ffe93a1        0x3 
 .rodata        0x000000003ffe93a4      0x100 c:/sviluppo/esp8266/sdk/xtensa-lx106-elf/bin/../lib/gcc/xtensa-lx106-elf/4.8.2\libgcc.a(_popcount_tab.o)
                0x000000003ffe93a4                __popcount_tab
 *(.rodata.*)
 .rodata.str1.4
                0x000000003ffe94a4      0x145 C:/sviluppo/ESP8266/projects/ESPWebFramework/../../SDK/esp_iot_rtos_sdk-master/lib\libmain.a(app_main.o)
 *fill*         0x000000003ffe95e9        0x3 
 .rodata.str1.4
                0x000000003ffe95ec        0x7 C:/sviluppo/ESP8266/projects/ESPWebFramework/../../SDK/esp_iot_rtos_sdk-master/lib\libmain.a(printf-stdarg.o)
                                          0xc (size before relaxing)
 *fill*         0x000000003ffe95f3        0x1 
 .rodata.str1.4
                0x000000003ffe95f4       0xdf C:/sviluppo/ESP8266/projects/ESPWebFramework/../../SDK/esp_iot_rtos_sdk-master/lib\libmain.a(user_interface.o)
                                         0xe7 (size before relaxing)
 *fill*         0x000000003ffe96d3        0x1 
 .rodata.str1.4
                0x000000003ffe96d4       0x15 C:/sviluppo/ESP8266/projects/ESPWebFramework/../../SDK/esp_iot_rtos_sdk-master/lib\libfreertos.a(port.o)
 *fill*         0x000000003ffe96e9        0x3 
 .rodata.str1.4
                0x000000003ffe96ec       0x1c C:/sviluppo/ESP8266/projects/ESPWebFramework/../../SDK/esp_iot_rtos_sdk-master/lib\libfreertos.a(tasks.o)
 .rodata.str1.4
                0x000000003ffe9708       0x1b C:/sviluppo/ESP8266/projects/ESPWebFramework/../../SDK/esp_iot_rtos_sdk-master/lib\libfreertos.a(timers.o)
 *fill*         0x000000003ffe9723        0x1 
 .rodata.str1.4
                0x000000003ffe9724        0xf C:/sviluppo/ESP8266/projects/ESPWebFramework/../../SDK/esp_iot_rtos_sdk-master/lib\liblwip.a(dns.o)
 *fill*         0x000000003ffe9733        0x1 
 .rodata.str1.4
                0x000000003ffe9734       0x16 C:/sviluppo/ESP8266/projects/ESPWebFramework/../../SDK/esp_iot_rtos_sdk-master/lib\liblwip.a(sys_arch.o)
 *fill*         0x000000003ffe974a        0x2 
 .rodata.str1.4
                0x000000003ffe974c       0x41 C:/sviluppo/ESP8266/projects/ESPWebFramework/../../SDK/esp_iot_rtos_sdk-master/lib\liblwip.a(tcpip.o)
 *fill*         0x000000003ffe978d        0x3 
 .rodata.str1.4
                0x000000003ffe9790       0x76 C:/sviluppo/ESP8266/projects/ESPWebFramework/../../SDK/esp_iot_rtos_sdk-master/lib\liblwip.a(tcp.o)
 *fill*         0x000000003ffe9806        0x2 
 .rodata.str1.4
                0x000000003ffe9808       0x5e libuser.a(user_main.o)
                                         0x62 (size before relaxing)
 *fill*         0x000000003ffe9866        0x2 
 .rodata._ZTVN3fdv4TaskE
                0x000000003ffe9868        0xc libuser.a(user_main.o)
                0x000000003ffe9868                vtable for fdv::Task
 *fill*         0x000000003ffe9874        0x4 
 .rodata._ZTV5Task1
                0x000000003ffe9878        0xc libuser.a(user_main.o)
                0x000000003ffe9878                vtable for Task1
 *fill*         0x000000003ffe9884        0x4 
 .rodata._ZTV8MainTask
                0x000000003ffe9888        0xc libuser.a(user_main.o)
                0x000000003ffe9888                vtable for MainTask
 *fill*         0x000000003ffe9894        0x4 
 .rodata._ZTVN3fdv14HardwareSerialE
                0x000000003ffe9898       0x24 libuser.a(fdvserial.o)
                0x000000003ffe9898                vtable for fdv::HardwareSerial
 .rodata.str1.4
                0x000000003ffe98bc       0x3d C:/sviluppo/ESP8266/projects/ESPWebFramework/../../SDK/esp_iot_rtos_sdk-master/lib\libphy.a(phy_chip_v6_ana.o)
                                         0x45 (size before relaxing)
 *fill*         0x000000003ffe98f9        0x3 
 .rodata.str1.4
                0x000000003ffe98fc       0xca C:/sviluppo/ESP8266/projects/ESPWebFramework/../../SDK/esp_iot_rtos_sdk-master/lib\libphy.a(phy_chip_v6.o)
                                         0xce (size before relaxing)
 *fill*         0x000000003ffe99c6        0x2 
 .rodata.str1.4
                0x000000003ffe99c8      0x179 C:/sviluppo/ESP8266/projects/ESPWebFramework/../../SDK/esp_iot_rtos_sdk-master/lib\libphy.a(phy_chip_v6_cal.o)
 *fill*         0x000000003ffe9b41        0x3 
 .rodata.str1.4
                0x000000003ffe9b44       0x1d C:/sviluppo/ESP8266/projects/ESPWebFramework/../../SDK/esp_iot_rtos_sdk-master/lib\libphy.a(phy_chip_v6_unused.o)
 *fill*         0x000000003ffe9b61        0x3 
 .rodata.str1.4
                0x000000003ffe9b64       0x22 C:/sviluppo/ESP8266/projects/ESPWebFramework/../../SDK/esp_iot_rtos_sdk-master/lib\libphy.a(phy_chip_v5_romfunc.o)
 *fill*         0x000000003ffe9b86        0x2 
 .rodata.str1.4
                0x000000003ffe9b88       0xbd C:/sviluppo/ESP8266/projects/ESPWebFramework/../../SDK/esp_iot_rtos_sdk-master/lib\libphy.a(phy_chip_v5_cal_romfunc.o)
                                         0xe5 (size before relaxing)
 *fill*         0x000000003ffe9c45        0x3 
 .rodata.str1.4
                0x000000003ffe9c48       0x33 C:/sviluppo/ESP8266/projects/ESPWebFramework/../../SDK/esp_iot_rtos_sdk-master/lib\libpp.a(lmac.o)
                                         0x3b (size before relaxing)
 *fill*         0x000000003ffe9c7b        0x1 
 .rodata.str1.4
                0x000000003ffe9c7c      0x11b C:/sviluppo/ESP8266/projects/ESPWebFramework/../../SDK/esp_iot_rtos_sdk-master/lib\libpp.a(pm.o)
                                        0x13b (size before relaxing)
 *fill*         0x000000003ffe9d97        0x1 
 .rodata.str1.4
                0x000000003ffe9d98       0x93 C:/sviluppo/ESP8266/projects/ESPWebFramework/../../SDK/esp_iot_rtos_sdk-master/lib\libpp.a(pp.o)
                                         0x9b (size before relaxing)
 *fill*         0x000000003ffe9e2b        0x1 
 .rodata.str1.4
                0x000000003ffe9e2c       0x39 C:/sviluppo/ESP8266/projects/ESPWebFramework/../../SDK/esp_iot_rtos_sdk-master/lib\libpp.a(trc.o)
 *fill*         0x000000003ffe9e65        0x3 
 .rodata.str1.4
                0x000000003ffe9e68        0xb C:/sviluppo/ESP8266/projects/ESPWebFramework/../../SDK/esp_iot_rtos_sdk-master/lib\libpp.a(wdev.o)
                                         0x13 (size before relaxing)
 *fill*         0x000000003ffe9e73        0x1 
 .rodata.str1.4
                0x000000003ffe9e74       0x50 C:/sviluppo/ESP8266/projects/ESPWebFramework/../../SDK/esp_iot_rtos_sdk-master/lib\libpp.a(if_hwctrl.o)
 .rodata.str1.4
                0x000000003ffe9ec4       0x37 C:/sviluppo/ESP8266/projects/ESPWebFramework/../../SDK/esp_iot_rtos_sdk-master/lib\libnet80211.a(ieee80211.o)
                                         0x42 (size before relaxing)
 *fill*         0x000000003ffe9efb        0x1 
 .rodata.str1.4
                0x000000003ffe9efc       0x19 C:/sviluppo/ESP8266/projects/ESPWebFramework/../../SDK/esp_iot_rtos_sdk-master/lib\libnet80211.a(ieee80211_ht.o)
 *fill*         0x000000003ffe9f15        0x3 
 .rodata.str1.4
                0x000000003ffe9f18       0x27 C:/sviluppo/ESP8266/projects/ESPWebFramework/../../SDK/esp_iot_rtos_sdk-master/lib\libnet80211.a(ieee80211_output.o)
                                         0x2f (size before relaxing)
 *fill*         0x000000003ffe9f3f        0x1 
 .rodata.str1.4
                0x000000003ffe9f40       0x32 C:/sviluppo/ESP8266/projects/ESPWebFramework/../../SDK/esp_iot_rtos_sdk-master/lib\libnet80211.a(ieee80211_proto.o)
 *fill*         0x000000003ffe9f72        0x2 
 .rodata.str1.4
                0x000000003ffe9f74       0x24 C:/sviluppo/ESP8266/projects/ESPWebFramework/../../SDK/esp_iot_rtos_sdk-master/lib\libnet80211.a(ieee80211_scan.o)
 .rodata.str1.4
                0x000000003ffe9f98       0x99 C:/sviluppo/ESP8266/projects/ESPWebFramework/../../SDK/esp_iot_rtos_sdk-master/lib\libnet80211.a(wl_cnx.o)
 *fill*         0x000000003ffea031        0x3 
 .rodata.str1.4
                0x000000003ffea034       0x3c C:/sviluppo/ESP8266/projects/ESPWebFramework/../../SDK/esp_iot_rtos_sdk-master/lib\libwpa.a(wpa_auth.o)
                                         0x43 (size before relaxing)
 .rodata.str1.4
                0x0000000000000000       0x17 C:/sviluppo/ESP8266/projects/ESPWebFramework/../../SDK/esp_iot_rtos_sdk-master/lib\libwpa.a(wpa.o)
 .rodata.str1.4
                0x000000003ffea070       0x45 C:/sviluppo/ESP8266/projects/ESPWebFramework/../../SDK/esp_iot_rtos_sdk-master/lib\libwpa.a(wpa_common.o)
 *fill*         0x000000003ffea0b5        0x3 
 .rodata.str1.4
                0x000000003ffea0b8       0x36 C:/sviluppo/ESP8266/projects/ESPWebFramework/../../SDK/esp_iot_rtos_sdk-master/lib\libwpa.a(wpa_main.o)
 *fill*         0x000000003ffea0ee        0x2 
 .rodata.str1.4
                0x000000003ffea0f0        0x4 C:/sviluppo/ESP8266/projects/ESPWebFramework/../../SDK/esp_iot_rtos_sdk-master/lib\libwpa.a(sha1-internal.o)
                                          0x2 (size before relaxing)
 *(.gnu.linkonce.r.*)
 *(.rodata1)
                0x000000003ffea0f4                __XT_EXCEPTION_TABLE__ = ABSOLUTE (.)
 *(.xt_except_table)
 *(.gcc_except_table)
 *(.gnu.linkonce.e.*)
 *(.gnu.version_r)
 *(.eh_frame)
 *crtbegin.o(.ctors)
 *(EXCLUDE_FILE(*crtend.o) .ctors)
 *(SORT(.ctors.*))
 *(.ctors)
 *crtbegin.o(.dtors)
 *(EXCLUDE_FILE(*crtend.o) .dtors)
 *(SORT(.dtors.*))
 *(.dtors)
                0x000000003ffea0f4                __XT_EXCEPTION_DESCS__ = ABSOLUTE (.)
 *(.xt_except_desc)
 *(.gnu.linkonce.h.*)
                0x000000003ffea0f4                __XT_EXCEPTION_DESCS_END__ = ABSOLUTE (.)
 *(.xt_except_desc_end)
 *(.dynamic)
 *(.gnu.version_d)
                0x000000003ffea0f4                . = ALIGN (0x4)
                0x000000003ffea0f4                _bss_table_start = ABSOLUTE (.)
                0x000000003ffea0f4        0x4 LONG 0x3ffea100 _bss_start
                0x000000003ffea0f8        0x4 LONG 0x3fff1ae0 _bss_end
                0x000000003ffea0fc                _bss_table_end = ABSOLUTE (.)
                0x000000003ffea0fc                _rodata_end = ABSOLUTE (.)

.UserExceptionVector.literal
                0x000000003ffea0fc        0x0
                0x000000003ffea0fc                _UserExceptionVector_literal_start = ABSOLUTE (.)
 *(.UserExceptionVector.literal)
                0x000000003ffea0fc                _UserExceptionVector_literal_end = ABSOLUTE (.)

.bss            0x000000003ffea100     0x79e0
                0x000000003ffea100                . = ALIGN (0x8)
                0x000000003ffea100                _bss_start = ABSOLUTE (.)
 *(.dynsbss)
 *(.sbss)
 *(.sbss.*)
 *(.gnu.linkonce.sb.*)
 *(.scommon)
 *(.sbss2)
 *(.sbss2.*)
 *(.gnu.linkonce.sb2.*)
 *(.dynbss)
 *(.bss)
 .bss           0x000000003ffea100      0x340 C:/sviluppo/ESP8266/projects/ESPWebFramework/../../SDK/esp_iot_rtos_sdk-master/lib\libmain.a(xtensa_vectors.o)
 .bss           0x000000003ffea440       0x34 C:/sviluppo/ESP8266/projects/ESPWebFramework/../../SDK/esp_iot_rtos_sdk-master/lib\libmain.a(app_main.o)
                0x000000003ffea440                wdtSemaphore
                0x000000003ffea444                user_init_flag
                0x000000003ffea448                info
                0x000000003ffea46c                xUserTaskHandle
                0x000000003ffea470                xWatchDogTaskHandle
 .bss           0x000000003ffea474        0x4 C:/sviluppo/ESP8266/projects/ESPWebFramework/../../SDK/esp_iot_rtos_sdk-master/lib\libmain.a(misc.o)
                0x000000003ffea474                _putc1
 *fill*         0x000000003ffea478        0x8 
 .bss           0x000000003ffea480      0x111 C:/sviluppo/ESP8266/projects/ESPWebFramework/../../SDK/esp_iot_rtos_sdk-master/lib\libmain.a(user_interface.o)
                0x000000003ffea570                promiscuous_cb
 *fill*         0x000000003ffea591        0x3 
 .bss           0x000000003ffea594        0x5 C:/sviluppo/ESP8266/projects/ESPWebFramework/../../SDK/esp_iot_rtos_sdk-master/lib\libmain.a(timers.o)
 *fill*         0x000000003ffea599        0x3 
 .bss           0x000000003ffea59c       0x1c C:/sviluppo/ESP8266/projects/ESPWebFramework/../../SDK/esp_iot_rtos_sdk-master/lib\libfreertos.a(heap_4.o)
 *fill*         0x000000003ffea5b8        0x8 
 .bss           0x000000003ffea5c0       0x50 C:/sviluppo/ESP8266/projects/ESPWebFramework/../../SDK/esp_iot_rtos_sdk-master/lib\libfreertos.a(port.o)
                0x000000003ffea5c0                ClosedLv1Isr
                0x000000003ffea5c8                cpu_sr
                0x000000003ffea5d0                isr
 .bss           0x000000003ffea610      0x244 C:/sviluppo/ESP8266/projects/ESPWebFramework/../../SDK/esp_iot_rtos_sdk-master/lib\libfreertos.a(tasks.o)
                0x000000003ffea614                pxCurrentTCB
 .bss           0x000000003ffea854       0x3c C:/sviluppo/ESP8266/projects/ESPWebFramework/../../SDK/esp_iot_rtos_sdk-master/lib\libfreertos.a(timers.o)
 .bss           0x000000003ffea890       0x38 C:/sviluppo/ESP8266/projects/ESPWebFramework/../../SDK/esp_iot_rtos_sdk-master/lib\liblwip.a(dhcp.o)
                0x000000003ffea890                dhcp_rx_options_given
                0x000000003ffea8a0                dhcp_rx_options_val
 *fill*         0x000000003ffea8c8        0x8 
 .bss           0x000000003ffea8d0      0x690 C:/sviluppo/ESP8266/projects/ESPWebFramework/../../SDK/esp_iot_rtos_sdk-master/lib\liblwip.a(dns.o)
 .bss           0x000000003ffeaf60       0xd8 C:/sviluppo/ESP8266/projects/ESPWebFramework/../../SDK/esp_iot_rtos_sdk-master/lib\liblwip.a(etharp.o)
 *fill*         0x000000003ffeb038        0x8 
 .bss           0x000000003ffeb040       0x10 C:/sviluppo/ESP8266/projects/ESPWebFramework/../../SDK/esp_iot_rtos_sdk-master/lib\liblwip.a(ip4_addr.o)
 .bss           0x000000003ffeb050       0x16 C:/sviluppo/ESP8266/projects/ESPWebFramework/../../SDK/esp_iot_rtos_sdk-master/lib\liblwip.a(ip4.o)
                0x000000003ffeb050                ip_data
 *fill*         0x000000003ffeb066        0x2 
 .bss           0x000000003ffeb068        0x6 C:/sviluppo/ESP8266/projects/ESPWebFramework/../../SDK/esp_iot_rtos_sdk-master/lib\liblwip.a(ip_frag.o)
 *fill*         0x000000003ffeb06e        0x2 
 .bss           0x000000003ffeb070        0xc C:/sviluppo/ESP8266/projects/ESPWebFramework/../../SDK/esp_iot_rtos_sdk-master/lib\liblwip.a(netif.o)
                0x000000003ffeb074                netif_list
                0x000000003ffeb078                netif_default
 .bss           0x000000003ffeb07c        0x4 C:/sviluppo/ESP8266/projects/ESPWebFramework/../../SDK/esp_iot_rtos_sdk-master/lib\liblwip.a(raw.o)
 .bss           0x000000003ffeb080       0xba C:/sviluppo/ESP8266/projects/ESPWebFramework/../../SDK/esp_iot_rtos_sdk-master/lib\liblwip.a(stats.o)
                0x000000003ffeb080                lwip_stats
 *fill*         0x000000003ffeb13a        0x2 
 .bss           0x000000003ffeb13c       0x2c C:/sviluppo/ESP8266/projects/ESPWebFramework/../../SDK/esp_iot_rtos_sdk-master/lib\liblwip.a(tcp_in.o)
                0x000000003ffeb164                tcp_input_pcb
 .bss           0x000000003ffeb168       0x14 C:/sviluppo/ESP8266/projects/ESPWebFramework/../../SDK/esp_iot_rtos_sdk-master/lib\liblwip.a(tcpip.o)
                0x000000003ffeb178                xLwipTaskHandle
 .bss           0x000000003ffeb17c       0x21 C:/sviluppo/ESP8266/projects/ESPWebFramework/../../SDK/esp_iot_rtos_sdk-master/lib\liblwip.a(tcp.o)
                0x000000003ffeb180                tcp_active_pcbs
                0x000000003ffeb184                tcp_tmp_pcb
                0x000000003ffeb188                tcp_active_pcbs_changed
                0x000000003ffeb18c                tcp_tw_pcbs
                0x000000003ffeb190                tcp_bound_pcbs
                0x000000003ffeb194                tcp_listen_pcbs
                0x000000003ffeb198                tcp_ticks
 *fill*         0x000000003ffeb19d        0x3 
 .bss           0x000000003ffeb1a0        0x8 C:/sviluppo/ESP8266/projects/ESPWebFramework/../../SDK/esp_iot_rtos_sdk-master/lib\liblwip.a(timers.o)
 .bss           0x000000003ffeb1a8        0x4 C:/sviluppo/ESP8266/projects/ESPWebFramework/../../SDK/esp_iot_rtos_sdk-master/lib\liblwip.a(udp.o)
                0x000000003ffeb1a8                udp_pcbs
 *fill*         0x000000003ffeb1ac        0x4 
 .bss           0x000000003ffeb1b0       0x70 C:/sviluppo/ESP8266/projects/ESPWebFramework/../../SDK/esp_iot_rtos_sdk-master/lib\liblwip.a(sockets.o)
 .bss           0x000000003ffeb220        0x4 libuser.a(fdvserial.o)
                0x000000003ffeb220                fdv::HardwareSerial::s_serials
 .bss           0x000000003ffeb224        0x4 C:/sviluppo/ESP8266/projects/ESPWebFramework/../../SDK/esp_iot_rtos_sdk-master/lib\libphy.a(phy.o)
 *fill*         0x000000003ffeb228        0x8 
 .bss           0x000000003ffeb230      0x38b C:/sviluppo/ESP8266/projects/ESPWebFramework/../../SDK/esp_iot_rtos_sdk-master/lib\libphy.a(phy_chip_v6.o)
                0x000000003ffeb230                rxiq_compute_num
                0x000000003ffeb234                rxdc_init_flag
                0x000000003ffeb238                check_result
                0x000000003ffeb23c                chip6_sleep_params
                0x000000003ffeb414                chip6_phy_init_ctrl
                0x000000003ffeb482                phy_freq_offset
                0x000000003ffeb484                do_pwctrl_flag
                0x000000003ffeb485                pwctrl_debug
                0x000000003ffeb486                txbk_dpdby_flag
                0x000000003ffeb488                sw_scan_mode
                0x000000003ffeb49c                periodic_cal_dc_num
                0x000000003ffeb4a0                periodic_cal_flag
                0x000000003ffeb4a1                bbpll_cal_flag
                0x000000003ffeb4a2                deep_sleep_en
                0x000000003ffeb4a8                noise_array
                0x000000003ffeb5b0                tx_pwctrl_atten_init
 *fill*         0x000000003ffeb5bb        0x1 
 .bss           0x000000003ffeb5bc        0x6 C:/sviluppo/ESP8266/projects/ESPWebFramework/../../SDK/esp_iot_rtos_sdk-master/lib\libphy.a(phy_chip_v6_cal.o)
                0x000000003ffeb5bc                loop_pwctrl_pwdet_error_accum_high_power
                0x000000003ffeb5be                tx_pwctrl_pk_num
                0x000000003ffeb5bf                loop_pwctrl_correct_atten_high_power
                0x000000003ffeb5c0                tx_pwctrl_set_chan_flag
                0x000000003ffeb5c1                rxiq_cover_fail_num
 *fill*         0x000000003ffeb5c2        0x2 
 .bss           0x000000003ffeb5c4        0x4 C:/sviluppo/ESP8266/projects/ESPWebFramework/../../SDK/esp_iot_rtos_sdk-master/lib\libphy.a(phy_sleep.o)
                0x000000003ffeb5c4                periodic_cal_sat
                0x000000003ffeb5c5                software_slp_reject
                0x000000003ffeb5c6                SDIO_slp_reject
                0x000000003ffeb5c7                hardware_reject
 *fill*         0x000000003ffeb5c8        0x8 
 .bss           0x000000003ffeb5d0      0x150 C:/sviluppo/ESP8266/projects/ESPWebFramework/../../SDK/esp_iot_rtos_sdk-master/lib\libpp.a(lmac.o)
                0x000000003ffeb5d4                lmacConfMib
 .bss           0x000000003ffeb720      0x112 C:/sviluppo/ESP8266/projects/ESPWebFramework/../../SDK/esp_iot_rtos_sdk-master/lib\libpp.a(pm.o)
 *fill*         0x000000003ffeb832        0xe 
 .bss           0x000000003ffeb840      0x242 C:/sviluppo/ESP8266/projects/ESPWebFramework/../../SDK/esp_iot_rtos_sdk-master/lib\libpp.a(pp.o)
                0x000000003ffeb864                time_num
                0x000000003ffeb868                idle_timer_enabled
 *fill*         0x000000003ffeba82        0xe 
 .bss           0x000000003ffeba90      0x100 C:/sviluppo/ESP8266/projects/ESPWebFramework/../../SDK/esp_iot_rtos_sdk-master/lib\libpp.a(rate_control.o)
 .bss           0x000000003ffebb90      0x268 C:/sviluppo/ESP8266/projects/ESPWebFramework/../../SDK/esp_iot_rtos_sdk-master/lib\libpp.a(trc.o)
 *fill*         0x000000003ffebdf8        0x8 
 .bss           0x000000003ffebe00     0x40c6 C:/sviluppo/ESP8266/projects/ESPWebFramework/../../SDK/esp_iot_rtos_sdk-master/lib\libpp.a(wdev.o)
                0x000000003ffebe00                wDevCtrl
                0x000000003ffebf84                NMIIrqIsOn
 *fill*         0x000000003ffefec6        0xa 
 .bss           0x000000003ffefed0      0xa7c C:/sviluppo/ESP8266/projects/ESPWebFramework/../../SDK/esp_iot_rtos_sdk-master/lib\libpp.a(esf_buf.o)
 *fill*         0x000000003fff094c        0x4 
 .bss           0x000000003fff0950       0x50 C:/sviluppo/ESP8266/projects/ESPWebFramework/../../SDK/esp_iot_rtos_sdk-master/lib\libpp.a(if_hwctrl.o)
                0x000000003fff0950                interface_mask
                0x000000003fff0960                if_ctrl
 .bss           0x000000003fff09a0      0x544 C:/sviluppo/ESP8266/projects/ESPWebFramework/../../SDK/esp_iot_rtos_sdk-master/lib\libnet80211.a(ieee80211.o)
                0x000000003fff09a0                xieee80211Queue
                0x000000003fff09a4                g_ic
 .bss           0x000000003fff0ee4       0x28 C:/sviluppo/ESP8266/projects/ESPWebFramework/../../SDK/esp_iot_rtos_sdk-master/lib\libnet80211.a(ieee80211_hostap.o)
                0x000000003fff0f04                TmpSTAAPCloseAP
                0x000000003fff0f05                PendFreeBcnEb
 .bss           0x000000003fff0f0c       0xe4 C:/sviluppo/ESP8266/projects/ESPWebFramework/../../SDK/esp_iot_rtos_sdk-master/lib\libnet80211.a(ieee80211_scan.o)
                0x000000003fff0f0c                gScanStruct
                0x000000003fff0fd0                scannum
 .bss           0x000000003fff0ff0       0x44 C:/sviluppo/ESP8266/projects/ESPWebFramework/../../SDK/esp_iot_rtos_sdk-master/lib\libnet80211.a(wl_chm.o)
 *fill*         0x000000003fff1034        0x4 
 .bss           0x000000003fff1038      0x768 C:/sviluppo/ESP8266/projects/ESPWebFramework/../../SDK/esp_iot_rtos_sdk-master/lib\libnet80211.a(wl_cnx.o)
                0x000000003fff1798                sta_con_timer
                0x000000003fff179c                g_cnx_probe_rc_list_cb
 .bss           0x000000003fff17a0      0x27a C:/sviluppo/ESP8266/projects/ESPWebFramework/../../SDK/esp_iot_rtos_sdk-master/lib\libwpa.a(wpa.o)
 *fill*         0x000000003fff1a1a        0x6 
 .bss           0x000000003fff1a20       0xb0 C:/sviluppo/ESP8266/projects/ESPWebFramework/../../SDK/esp_iot_rtos_sdk-master/lib\libwpa.a(aes-internal-dec.o)
 .bss           0x000000003fff1ad0        0x4 C:/sviluppo/ESP8266/projects/ESPWebFramework/../../SDK/esp_iot_rtos_sdk-master/lib\libmain.a(libc.o)
 *fill*         0x000000003fff1ad4        0x4 
 .bss           0x000000003fff1ad8        0x8 C:/sviluppo/ESP8266/projects/ESPWebFramework/../../SDK/esp_iot_rtos_sdk-master/lib\libnet80211.a(ieee80211_crypto_tkip.o)
 *(.bss.*)
 *(.gnu.linkonce.b.*)
 *(COMMON)
                0x000000003fff1ae0                . = ALIGN (0x8)
                0x000000003fff1ae0                _bss_end = ABSOLUTE (.)
                0x000000003fff1ae0                _heap_start = ABSOLUTE (.)

.text           0x0000000040100000     0x6ffc
                0x0000000040100000                _stext = .
                0x0000000040100000                _text_start = ABSOLUTE (.)
 *(.UserEnter.text)
 .UserEnter.text
                0x0000000040100000        0xd C:/sviluppo/ESP8266/projects/ESPWebFramework/../../SDK/esp_iot_rtos_sdk-master/lib\libmain.a(xtensa_vectors.o)
                                         0x14 (size before relaxing)
                0x0000000040100004                call_user_start
                0x0000000040100010                . = ALIGN (0x10)
 *fill*         0x000000004010000d        0x3 
 *(.DebugExceptionVector.text)
 .DebugExceptionVector.text
                0x0000000040100010        0x9 C:/sviluppo/ESP8266/projects/ESPWebFramework/../../SDK/esp_iot_rtos_sdk-master/lib\libmain.a(xtensa_vectors.o)
                                         0x10 (size before relaxing)
                0x0000000040100010                _DebugExceptionVector
                0x0000000040100020                . = ALIGN (0x10)
 *fill*         0x0000000040100019        0x7 
 *(.NMIExceptionVector.text)
 .NMIExceptionVector.text
                0x0000000040100020        0x6 C:/sviluppo/ESP8266/projects/ESPWebFramework/../../SDK/esp_iot_rtos_sdk-master/lib\libmain.a(xtensa_vectors.o)
                                          0xd (size before relaxing)
                0x0000000040100020                _NMIExceptionVector
                0x0000000040100030                . = ALIGN (0x10)
 *fill*         0x0000000040100026        0xa 
 *(.KernelExceptionVector.text)
 .KernelExceptionVector.text
                0x0000000040100030        0x6 C:/sviluppo/ESP8266/projects/ESPWebFramework/../../SDK/esp_iot_rtos_sdk-master/lib\libmain.a(xtensa_vectors.o)
                                          0xd (size before relaxing)
                0x0000000040100030                _KernelExceptionVector
                0x0000000040100036        0x4 LONG 0x0
                0x000000004010003a        0x4 LONG 0x0
                0x000000004010003e        0x4 LONG 0x0
                0x0000000040100042        0x4 LONG 0x0
                0x0000000040100050                . = ALIGN (0x10)
 *fill*         0x0000000040100046        0xa 
 *(.UserExceptionVector.text)
 .UserExceptionVector.text
                0x0000000040100050        0x6 C:/sviluppo/ESP8266/projects/ESPWebFramework/../../SDK/esp_iot_rtos_sdk-master/lib\libmain.a(xtensa_vectors.o)
                                          0xd (size before relaxing)
                0x0000000040100050                _UserExceptionVector
                0x0000000040100056        0x4 LONG 0x0
                0x000000004010005a        0x4 LONG 0x0
                0x000000004010005e        0x4 LONG 0x0
                0x0000000040100062        0x4 LONG 0x0
                0x0000000040100070                . = ALIGN (0x10)
 *fill*         0x0000000040100066        0xa 
 *(.DoubleExceptionVector.text)
 .DoubleExceptionVector.text
                0x0000000040100070        0x9 C:/sviluppo/ESP8266/projects/ESPWebFramework/../../SDK/esp_iot_rtos_sdk-master/lib\libmain.a(xtensa_vectors.o)
                                         0x10 (size before relaxing)
                0x0000000040100070                _DoubleExceptionVector
                0x0000000040100079        0x4 LONG 0x0
                0x000000004010007d        0x4 LONG 0x0
                0x0000000040100081        0x4 LONG 0x0
                0x0000000040100085        0x4 LONG 0x0
                0x0000000040100090                . = ALIGN (0x10)
 *fill*         0x0000000040100089        0x7 
 *(.entry.text)
 *(.init.literal)
 *(.init)
 *(.literal .text .literal.* .text.* .stub .gnu.warning .gnu.linkonce.literal.* .gnu.linkonce.t.*.literal .gnu.linkonce.t.*)
 .text          0x0000000040100090      0x19b C:/sviluppo/ESP8266/projects/ESPWebFramework/../../SDK/esp_iot_rtos_sdk-master/lib\libmain.a(xtensa_vectors.o)
                                        0x1c7 (size before relaxing)
                0x0000000040100090                _xt_panic
                0x0000000040100138                _xt_user_exit
 *fill*         0x000000004010022b        0x1 
 .text          0x000000004010022c      0x36a C:/sviluppo/ESP8266/projects/ESPWebFramework/../../SDK/esp_iot_rtos_sdk-master/lib\libmain.a(app_main.o)
                                        0x3e2 (size before relaxing)
                0x0000000040100350                user_fatal_exception_handler
                0x00000000401003f0                wdt_feed
                0x0000000040100430                user_start
                0x0000000040100528                vApplicationStackOverflowHook
                0x0000000040100554                vApplicationIdleHook
                0x0000000040100578                vApplicationTickHook
 *fill*         0x0000000040100596        0x2 
 .text          0x0000000040100598      0x4bc C:/sviluppo/ESP8266/projects/ESPWebFramework/../../SDK/esp_iot_rtos_sdk-master/lib\libmain.a(printf-stdarg.o)
                                        0x4cc (size before relaxing)
                0x0000000040100988                printf
                0x0000000040100988                ets_printf
                0x00000000401009bc                sprintf
                0x00000000401009e8                snprintf
                0x0000000040100a18                puts
                0x0000000040100a30                putchar
                0x0000000040100a50                __write
 .text          0x0000000040100a54      0x338 C:/sviluppo/ESP8266/projects/ESPWebFramework/../../SDK/esp_iot_rtos_sdk-master/lib\libmain.a(spi_flash.o)
                                        0x3b8 (size before relaxing)
                0x0000000040100a74                SPIReadModeCnfig
                0x0000000040100af8                SPIWrite
                0x0000000040100bcc                SPIRead
                0x0000000040100bfc                SPIEraseSector
                0x0000000040100c4c                spi_flash_get_id
                0x0000000040100cb0                spi_flash_erase_sector
                0x0000000040100ce8                spi_flash_write
                0x0000000040100d44                spi_flash_read
 .text          0x0000000040100d8c      0x143 C:/sviluppo/ESP8266/projects/ESPWebFramework/../../SDK/esp_iot_rtos_sdk-master/lib\libmain.a(os_cpu_a.o)
                                        0x177 (size before relaxing)
                0x0000000040100d8c                vPortYield
                0x0000000040100dcc                _xt_int_enter
                0x0000000040100de4                _xt_int_exit
                0x0000000040100e0c                _xt_timer_int
                0x0000000040100e40                _xt_timer_int1
                0x0000000040100e5c                _xt_tick_timer_init
                0x0000000040100e80                _xt_isr_unmask
                0x0000000040100e98                _xt_isr_mask
                0x0000000040100eb0                _xt_read_ints
                0x0000000040100ec0                _xt_clear_ints
 *fill*         0x0000000040100ecf        0x1 
 .text          0x0000000040100ed0      0x23d C:/sviluppo/ESP8266/projects/ESPWebFramework/../../SDK/esp_iot_rtos_sdk-master/lib\libfreertos.a(heap_4.o)
                                        0x271 (size before relaxing)
                0x0000000040100ee4                pvPortMalloc
                0x0000000040100ee4                malloc
                0x0000000040100fa0                vPortFree
                0x0000000040100fa0                free
                0x0000000040100ff8                calloc
                0x0000000040100ff8                pvPortCalloc
                0x0000000040101020                pvPortZalloc
                0x0000000040101020                zalloc
                0x0000000040101034                realloc
                0x0000000040101034                pvPortRealloc
                0x000000004010106c                xPortGetFreeHeapSize
                0x0000000040101074                vPortInitialiseBlocks
 *fill*         0x000000004010110d        0x3 
 .text          0x0000000040101110      0x147 C:/sviluppo/ESP8266/projects/ESPWebFramework/../../SDK/esp_iot_rtos_sdk-master/lib\libfreertos.a(port.o)
                                        0x17b (size before relaxing)
                0x0000000040101114                PendSV
                0x0000000040101170                SoftIsrHdl
                0x00000000401011b4                xPortSysTickHandle
                0x00000000401011d0                _xt_isr_attach
                0x00000000401011dc                _xt_isr_handler
 *fill*         0x0000000040101257        0x1 
 .text          0x0000000040101258      0x250 C:/sviluppo/ESP8266/projects/ESPWebFramework/../../SDK/esp_iot_rtos_sdk-master/lib\libfreertos.a(tasks.o)
                                        0x288 (size before relaxing)
                0x000000004010126c                xTaskIncrementTick
                0x00000000401013dc                vTaskSwitchContext
 .text          0x00000000401014a8       0x5a libuser.a(user_main.o)
                0x00000000401014c0                user_init
 *fill*         0x0000000040101502        0x2 
 .text          0x0000000040101504       0x8b libuser.a(fdvserial.o)
                0x0000000040101518                fdv::HardwareSerial_rx_handler()
 *fill*         0x000000004010158f        0x1 
 .text._ZN3fdv14HardwareSerial3putEh
                0x0000000040101590       0x23 libuser.a(fdvserial.o)
                                         0x27 (size before relaxing)
                0x0000000040101590                fdv::HardwareSerial::put(unsigned char)
 *fill*         0x00000000401015b3        0x1 
 .text._ZN3fdv14HardwareSerial4peekEv
                0x00000000401015b4       0x29 libuser.a(fdvserial.o)
                0x00000000401015b8                fdv::HardwareSerial::peek()
 *fill*         0x00000000401015dd        0x3 
 .text._ZN3fdv14HardwareSerial11waitForDataEm
                0x00000000401015e0       0x30 libuser.a(fdvserial.o)
                                         0x3c (size before relaxing)
                0x00000000401015e0                fdv::HardwareSerial::waitForData(unsigned long)
 .text._ZN3fdv14HardwareSerial4readEv
                0x0000000040101610       0x25 libuser.a(fdvserial.o)
                                         0x29 (size before relaxing)
                0x0000000040101610                fdv::HardwareSerial::read()
 *fill*         0x0000000040101635        0x3 
 .text._ZN3fdv14HardwareSerial9availableEv
                0x0000000040101638       0x1b libuser.a(fdvserial.o)
                0x000000004010163c                fdv::HardwareSerial::available()
 *fill*         0x0000000040101653        0x1 
 .text._ZN3fdv14HardwareSerial5flushEv
                0x0000000040101654       0x1b libuser.a(fdvserial.o)
                0x0000000040101658                fdv::HardwareSerial::flush()
 *fill*         0x000000004010166f        0x1 
 .text          0x0000000040101670       0x4b C:/sviluppo/ESP8266/projects/ESPWebFramework/../../SDK/esp_iot_rtos_sdk-master/lib\libphy.a(phy.o)
                                         0x53 (size before relaxing)
                0x0000000040101678                register_phy_ops
                0x0000000040101698                phy_change_channel
                0x00000000401016b0                phy_get_mactime
 *fill*         0x00000000401016bb        0x1 
 .text          0x00000000401016bc       0xf7 C:/sviluppo/ESP8266/projects/ESPWebFramework/../../SDK/esp_iot_rtos_sdk-master/lib\libphy.a(phy_sleep.o)
                                        0x103 (size before relaxing)
                0x00000000401016cc                pm_rtc_clock_cali
                0x0000000040101788                clockgate_watchdog
 *fill*         0x00000000401017b3        0x1 
 .text          0x00000000401017b4     0x14b2 C:/sviluppo/ESP8266/projects/ESPWebFramework/../../SDK/esp_iot_rtos_sdk-master/lib\libpp.a(lmac.o)
                                       0x1842 (size before relaxing)
                0x00000000401017b8                lmacIsActive
                0x00000000401017cc                lmacIsIdle
                0x0000000040101c18                lmacSetAcParam
                0x0000000040101cac                lmacProcessTXStartData
                0x0000000040101e54                lmacProcessTxSuccess
                0x0000000040101f9c                GetAccess
                0x0000000040101fa8                lmacDiscardAgedMSDU
                0x0000000040101fbc                lmacRecycleMPDU
                0x000000004010246c                lmacProcessCollisions
                0x00000000401024c8                lmacProcessCollision
                0x000000004010254c                lmacMSDUAged
                0x00000000401028dc                lmacProcessCtsTimeout
                0x0000000040102924                lmacProcessAckTimeout
                0x0000000040102978                lmacProcessRtsStart
                0x0000000040102984                lmacProcessTxRtsError
                0x0000000040102a1c                lmacProcessTxError
                0x0000000040102aa0                lmacTxFrame
                0x0000000040102c50                lmacRxDone
 *fill*         0x0000000040102c66        0x2 
 .text          0x0000000040102c68     0x1314 C:/sviluppo/ESP8266/projects/ESPWebFramework/../../SDK/esp_iot_rtos_sdk-master/lib\libpp.a(pp.o)
                                       0x1594 (size before relaxing)
                0x0000000040102cd4                ppTask
                0x0000000040102ec8                ppProcessWaitQ
                0x0000000040102edc                ppRecycleRxPkt
                0x0000000040102f38                ppCheckTxIdle
                0x000000004010320c                ppProcessTxQ
                0x00000000401032f8                ppGetTxQFirstAvail_Locked
                0x0000000040103384                ppFetchTxQFirstAvail
                0x00000000401033c4                ppDequeueTxQ
                0x00000000401033ec                ppRollBackTxQ
                0x0000000040103410                ppRecordBarRRC
                0x0000000040103420                ppTxqUpdateBitmap
                0x000000004010343c                ppEnqueueTxDone
                0x00000000401034e8                ppEnqueueRxq
                0x0000000040103d18                ppDiscardMPDU
                0x0000000040103d4c                pp_post
                0x0000000040103e34                ppCalTxop
                0x0000000040103f0c                ppCalFrameTimes
 .text          0x0000000040103f7c       0xf5 C:/sviluppo/ESP8266/projects/ESPWebFramework/../../SDK/esp_iot_rtos_sdk-master/lib\libpp.a(rate_control.o)
                                        0x109 (size before relaxing)
                0x0000000040103f9c                RC_GetAckRate
                0x0000000040103fa8                RC_GetRtsRate
                0x0000000040103fb8                RC_GetAckTime
                0x0000000040103fcc                RC_GetCtsTime
                0x0000000040104004                RC_GetBlockAckTime
 *fill*         0x0000000040104071        0x3 
 .text          0x0000000040104074      0x7f9 C:/sviluppo/ESP8266/projects/ESPWebFramework/../../SDK/esp_iot_rtos_sdk-master/lib\libpp.a(trc.o)
                                        0x81d (size before relaxing)
                0x00000000401041ec                rcUpdateTxDone
                0x0000000040104280                rcUpdateRxDone
                0x00000000401042dc                rcUpdateDataRxDone
                0x00000000401042f4                rcGetSched
                0x000000004010439c                rcGetRate
                0x00000000401047a0                rcReachRetryLimit
                0x00000000401047b8                trc_NeedRTS
 *fill*         0x000000004010486d        0x3 
 .text          0x0000000040104870      0x89c C:/sviluppo/ESP8266/projects/ESPWebFramework/../../SDK/esp_iot_rtos_sdk-master/lib\libpp.a(wdev.o)
                                        0xa2c (size before relaxing)
                0x0000000040104b18                wDev_ProcessFiq
                0x0000000040104db0                wDev_EnableTransmit
                0x0000000040104df4                wDev_DisableTransmit
                0x0000000040104e14                Tx_Copy2Queue
                0x0000000040104e5c                wDev_ProcessCollision
                0x0000000040104e80                wDev_GetTxqCollisions
                0x0000000040104e94                wDev_ClearTxqCollisions
                0x0000000040104eb0                wDev_SetWaitingQueue
                0x0000000040104efc                wDev_ClearWaitingQueue
                0x0000000040104f20                wDev_SetFrameAckType
                0x0000000040104f7c                wDev_AppendRxBlocks
                0x00000000401050a8                wDev_GetBAInfo
                0x00000000401050d8                wDevDisableRx
 .text          0x000000004010510c      0x4c2 C:/sviluppo/ESP8266/projects/ESPWebFramework/../../SDK/esp_iot_rtos_sdk-master/lib\libpp.a(esf_buf.o)
                                        0x5f2 (size before relaxing)
                0x0000000040105110                esf_rx_buf_alloc
                0x00000000401051a4                esf_buf_alloc
                0x00000000401053b4                esf_buf_recycle
 *fill*         0x00000000401055ce        0x2 
 .text          0x00000000401055d0       0xcf C:/sviluppo/ESP8266/projects/ESPWebFramework/../../SDK/esp_iot_rtos_sdk-master/lib\libnet80211.a(wl_chm.o)
                                         0xe7 (size before relaxing)
                0x00000000401055d4                chm_acquire_lock
                0x0000000040105618                chm_release_lock
                0x0000000040105634                chm_cancel_op
                0x000000004010566c                chm_return_home_channel
                0x0000000040105698                chm_get_current_channel
 *fill*         0x000000004010569f        0x1 
 .text          0x00000000401056a0       0x76 C:/sviluppo/ESP8266/projects/ESPWebFramework/../../SDK/esp_iot_rtos_sdk-master/lib\libmain.a(libc.o)
                                         0x7e (size before relaxing)
                0x00000000401056b4                rand_r
                0x0000000040105704                rand
 *fill*         0x0000000040105716        0x2 
 .literal       0x0000000040105718        0x4 c:/sviluppo/esp8266/sdk/xtensa-lx106-elf/bin/../lib/gcc/xtensa-lx106-elf/4.8.2\libgcc.a(_addsubsf3.o)
                                          0xc (size before relaxing)
 .literal       0x000000004010571c        0x0 c:/sviluppo/esp8266/sdk/xtensa-lx106-elf/bin/../lib/gcc/xtensa-lx106-elf/4.8.2\libgcc.a(_mulsf3.o)
                                         0x10 (size before relaxing)
 .literal       0x000000004010571c        0x0 c:/sviluppo/esp8266/sdk/xtensa-lx106-elf/bin/../lib/gcc/xtensa-lx106-elf/4.8.2\libgcc.a(_divsf3.o)
                                         0x10 (size before relaxing)
 .literal       0x000000004010571c        0x0 c:/sviluppo/esp8266/sdk/xtensa-lx106-elf/bin/../lib/gcc/xtensa-lx106-elf/4.8.2\libgcc.a(_fixsfsi.o)
                                          0x4 (size before relaxing)
 .literal       0x000000004010571c        0x0 c:/sviluppo/esp8266/sdk/xtensa-lx106-elf/bin/../lib/gcc/xtensa-lx106-elf/4.8.2\libgcc.a(_fixunssfsi.o)
                                          0x4 (size before relaxing)
 .literal       0x000000004010571c        0x8 c:/sviluppo/esp8266/sdk/xtensa-lx106-elf/bin/../lib/gcc/xtensa-lx106-elf/4.8.2\libgcc.a(_addsubdf3.o)
                                          0xc (size before relaxing)
 .literal       0x0000000040105724        0x4 c:/sviluppo/esp8266/sdk/xtensa-lx106-elf/bin/../lib/gcc/xtensa-lx106-elf/4.8.2\libgcc.a(_muldf3.o)
                                         0x10 (size before relaxing)
 .literal       0x0000000040105728        0x0 c:/sviluppo/esp8266/sdk/xtensa-lx106-elf/bin/../lib/gcc/xtensa-lx106-elf/4.8.2\libgcc.a(_divdf3.o)
                                         0x10 (size before relaxing)
 .literal       0x0000000040105728        0x0 c:/sviluppo/esp8266/sdk/xtensa-lx106-elf/bin/../lib/gcc/xtensa-lx106-elf/4.8.2\libgcc.a(_fixdfsi.o)
                                          0x4 (size before relaxing)
 .literal       0x0000000040105728        0x4 c:/sviluppo/esp8266/sdk/xtensa-lx106-elf/bin/../lib/gcc/xtensa-lx106-elf/4.8.2\libgcc.a(_truncdfsf2.o)
                                          0x8 (size before relaxing)
 .literal       0x000000004010572c        0x0 c:/sviluppo/esp8266/sdk/xtensa-lx106-elf/bin/../lib/gcc/xtensa-lx106-elf/4.8.2\libgcc.a(_extendsfdf2.o)
                                          0x8 (size before relaxing)
 .literal       0x000000004010572c        0x0 c:/sviluppo/esp8266/sdk/xtensa-lx106-elf/bin/../lib/gcc/xtensa-lx106-elf/4.8.2\libgcc.a(_muldi3.o)
                                          0x4 (size before relaxing)
 .literal       0x000000004010572c        0x4 c:/sviluppo/esp8266/sdk/xtensa-lx106-elf/bin/../lib/gcc/xtensa-lx106-elf/4.8.2\libgcc.a(_popcountsi2.o)
 .literal       0x0000000040105730        0x0 c:/sviluppo/esp8266/sdk/xtensa-lx106-elf/bin/../lib/gcc/xtensa-lx106-elf/4.8.2\libgcc.a(_divdi3.o)
                                         0x48 (size before relaxing)
 .literal       0x0000000040105730        0x0 c:/sviluppo/esp8266/sdk/xtensa-lx106-elf/bin/../lib/gcc/xtensa-lx106-elf/4.8.2\libgcc.a(_umoddi3.o)
                                         0x40 (size before relaxing)
 .text          0x0000000040105730      0x1ff c:/sviluppo/esp8266/sdk/xtensa-lx106-elf/bin/../lib/gcc/xtensa-lx106-elf/4.8.2\libgcc.a(_addsubsf3.o)
                0x000000004010574c                __addsf3
                0x0000000040105834                __subsf3
 *fill*         0x000000004010592f        0x1 
 .text          0x0000000040105930      0x15d c:/sviluppo/esp8266/sdk/xtensa-lx106-elf/bin/../lib/gcc/xtensa-lx106-elf/4.8.2\libgcc.a(_mulsf3.o)
                0x00000000401059a8                __mulsf3
 *fill*         0x0000000040105a8d        0x3 
 .text          0x0000000040105a90      0x135 c:/sviluppo/esp8266/sdk/xtensa-lx106-elf/bin/../lib/gcc/xtensa-lx106-elf/4.8.2\libgcc.a(_divsf3.o)
                0x0000000040105b0c                __divsf3
 *fill*         0x0000000040105bc5        0x3 
 .text          0x0000000040105bc8       0x40 c:/sviluppo/esp8266/sdk/xtensa-lx106-elf/bin/../lib/gcc/xtensa-lx106-elf/4.8.2\libgcc.a(_fixsfsi.o)
                0x0000000040105bc8                __fixsfsi
 .text          0x0000000040105c08       0x51 c:/sviluppo/esp8266/sdk/xtensa-lx106-elf/bin/../lib/gcc/xtensa-lx106-elf/4.8.2\libgcc.a(_fixunssfsi.o)
                0x0000000040105c08                __fixunssfsi
 *fill*         0x0000000040105c59        0x3 
 .text          0x0000000040105c5c      0x2f6 c:/sviluppo/esp8266/sdk/xtensa-lx106-elf/bin/../lib/gcc/xtensa-lx106-elf/4.8.2\libgcc.a(_addsubdf3.o)
                0x0000000040105c7c                __adddf3
                0x0000000040105dcc                __subdf3
 *fill*         0x0000000040105f52        0x2 
 .text          0x0000000040105f54      0x29b c:/sviluppo/esp8266/sdk/xtensa-lx106-elf/bin/../lib/gcc/xtensa-lx106-elf/4.8.2\libgcc.a(_muldf3.o)
                0x0000000040106034                __muldf3
 *fill*         0x00000000401061ef        0x1 
 .text          0x00000000401061f0      0x20b c:/sviluppo/esp8266/sdk/xtensa-lx106-elf/bin/../lib/gcc/xtensa-lx106-elf/4.8.2\libgcc.a(_divdf3.o)
                0x00000000401062d8                __divdf3
 *fill*         0x00000000401063fb        0x1 
 .text          0x00000000401063fc       0x48 c:/sviluppo/esp8266/sdk/xtensa-lx106-elf/bin/../lib/gcc/xtensa-lx106-elf/4.8.2\libgcc.a(_fixdfsi.o)
                0x00000000401063fc                __fixdfsi
 .text          0x0000000040106444       0xa0 c:/sviluppo/esp8266/sdk/xtensa-lx106-elf/bin/../lib/gcc/xtensa-lx106-elf/4.8.2\libgcc.a(_truncdfsf2.o)
                0x0000000040106444                __truncdfsf2
 .text          0x00000000401064e4       0x5e c:/sviluppo/esp8266/sdk/xtensa-lx106-elf/bin/../lib/gcc/xtensa-lx106-elf/4.8.2\libgcc.a(_extendsfdf2.o)
                0x00000000401064e4                __extendsfdf2
 *fill*         0x0000000040106542        0x2 
 .text          0x0000000040106544       0x36 c:/sviluppo/esp8266/sdk/xtensa-lx106-elf/bin/../lib/gcc/xtensa-lx106-elf/4.8.2\libgcc.a(_muldi3.o)
                0x0000000040106544                __muldi3
 *fill*         0x000000004010657a        0x2 
 .text          0x000000004010657c       0x21 c:/sviluppo/esp8266/sdk/xtensa-lx106-elf/bin/../lib/gcc/xtensa-lx106-elf/4.8.2\libgcc.a(_popcountsi2.o)
                0x000000004010657c                __popcountsi2
 *fill*         0x000000004010659d        0x3 
 .text          0x00000000401065a0      0x3eb c:/sviluppo/esp8266/sdk/xtensa-lx106-elf/bin/../lib/gcc/xtensa-lx106-elf/4.8.2\libgcc.a(_divdi3.o)
                                        0x41b (size before relaxing)
                0x00000000401065a0                __divdi3
 *fill*         0x000000004010698b        0x1 
 .text          0x000000004010698c      0x33a c:/sviluppo/esp8266/sdk/xtensa-lx106-elf/bin/../lib/gcc/xtensa-lx106-elf/4.8.2\libgcc.a(_umoddi3.o)
                                        0x366 (size before relaxing)
                0x000000004010698c                __umoddi3
 *fill*         0x0000000040106cc6        0x0 
 *fill*         0x0000000040106cc6        0x0 
 *fill*         0x0000000040106cc6        0x2 
 .text          0x0000000040106cc8       0x3d C:/sviluppo/ESP8266/projects/ESPWebFramework/../../SDK/esp_iot_rtos_sdk-master/lib\libmain.a(xtensa_context.o)
                0x0000000040106cc8                _xt_context_save
                0x0000000040106ce4                _xt_context_restore
 *fill*         0x0000000040106d05        0x0 
 *fill*         0x0000000040106d05        0x0 
 *fill*         0x0000000040106d05        0x3 
 .text          0x0000000040106d08       0x1f C:/sviluppo/ESP8266/projects/ESPWebFramework/../../SDK/esp_iot_rtos_sdk-master/lib\libfreertos.a(list.o)
                0x0000000040106d08                uxListRemove
 *fill*         0x0000000040106d27        0x1 
 .literal._ZN3fdv4Task5entryEPv
                0x0000000040106d28        0x0 libuser.a(user_main.o)
 *fill*         0x0000000040106d28        0x0 
 .literal._ZN3fdv14HardwareSerial3putEh
                0x0000000040106d28        0x0 libuser.a(fdvserial.o)
 .literal._ZN3fdv14HardwareSerial4peekEv
                0x0000000040106d28        0x0 libuser.a(fdvserial.o)
 .literal._ZN3fdv14HardwareSerial11waitForDataEm
                0x0000000040106d28        0x0 libuser.a(fdvserial.o)
 .literal._ZN3fdv14HardwareSerial4readEv
                0x0000000040106d28        0x0 libuser.a(fdvserial.o)
 .literal._ZN3fdv14HardwareSerial9availableEv
                0x0000000040106d28        0x0 libuser.a(fdvserial.o)
 .literal._ZN3fdv14HardwareSerial5flushEv
                0x0000000040106d28        0x0 libuser.a(fdvserial.o)
 *fill*         0x0000000040106d28        0x0 
 *fill*         0x0000000040106d28        0x0 
 *fill*         0x0000000040106d28        0x0 
 *fill*         0x0000000040106d28        0x0 
 *fill*         0x0000000040106d28        0x0 
 *fill*         0x0000000040106d28        0x0 
 .text          0x0000000040106d28       0x64 c:/sviluppo/esp8266/sdk/xtensa-lx106-elf/bin/../lib/gcc/xtensa-lx106-elf/4.8.2\libgcc.a(_divsi3.o)
                0x0000000040106d28                __divsi3
 .text          0x0000000040106d8c       0x4c c:/sviluppo/esp8266/sdk/xtensa-lx106-elf/bin/../lib/gcc/xtensa-lx106-elf/4.8.2\libgcc.a(_udivsi3.o)
                0x0000000040106d8c                __udivsi3
 .text          0x0000000040106dd8       0x39 c:/sviluppo/esp8266/sdk/xtensa-lx106-elf/bin/../lib/gcc/xtensa-lx106-elf/4.8.2\libgcc.a(_umodsi3.o)
                0x0000000040106dd8                __umodsi3
 *fill*         0x0000000040106e11        0x3 
 .text          0x0000000040106e14       0x20 C:/sviluppo/ESP8266/projects/ESPWebFramework/../../SDK/esp_iot_rtos_sdk-master/lib\libhal.a(clock.o)
                0x0000000040106e14                xthal_get_ccount
                0x0000000040106e1c                xthal_set_ccompare
                0x0000000040106e28                xthal_get_ccompare
 .text          0x0000000040106e34        0x5 C:/sviluppo/ESP8266/projects/ESPWebFramework/../../SDK/esp_iot_rtos_sdk-master/lib\libhal.a(int_asm--set_intset.o)
                0x0000000040106e34                xthal_set_intset
 *fill*         0x0000000040106e39        0x0 
 *fill*         0x0000000040106e39        0x3 
 .text          0x0000000040106e3c        0x2 C:/sviluppo/ESP8266/projects/ESPWebFramework/../../SDK/esp_iot_rtos_sdk-master/lib\libphy.a(phy_chip_v6.o)
                0x0000000040106e3c                ram_tx_mac_disable
 *fill*         0x0000000040106e3e        0x0 
 *fill*         0x0000000040106e3e        0x0 
 *fill*         0x0000000040106e3e        0x0 
 *fill*         0x0000000040106e3e        0x0 
 *fill*         0x0000000040106e3e        0x0 
 *fill*         0x0000000040106e3e        0x2 
 .text          0x0000000040106e40       0x25 C:/sviluppo/ESP8266/projects/ESPWebFramework/../../SDK/esp_iot_rtos_sdk-master/lib\libnet80211.a(ieee80211_hostap.o)
 *fill*         0x0000000040106e65        0x3 
 .text          0x0000000040106e68       0x56 C:/sviluppo/ESP8266/projects/ESPWebFramework/../../SDK/esp_iot_rtos_sdk-master/lib\libnet80211.a(ieee80211_input.o)
                0x0000000040106e68                ieee80211_parse_action
 *fill*         0x0000000040106ebe        0x0 
 *fill*         0x0000000040106ebe        0x2 
 .text          0x0000000040106ec0       0x11 C:/sviluppo/ESP8266/projects/ESPWebFramework/../../SDK/esp_iot_rtos_sdk-master/lib\libwpa.a(wpa_auth.o)
 *fill*         0x0000000040106ed1        0x0 
 *fill*         0x0000000040106ed1        0x3 
 .text          0x0000000040106ed4       0x49 c:/sviluppo/esp8266/sdk/xtensa-lx106-elf/bin/../lib/gcc/xtensa-lx106-elf/4.8.2\libgcc.a(_modsi3.o)
                0x0000000040106ed4                __modsi3
 *fill*         0x0000000040106f1d        0x3 
 .text          0x0000000040106f20       0x18 c:/sviluppo/esp8266/sdk/xtensa-lx106-elf/bin/../lib/gcc/xtensa-lx106-elf/4.8.2\libgcc.a(_ashrdi3.o)
                0x0000000040106f20                __ashrdi3
 *fill*         0x0000000040106f38        0x0 
 *fill*         0x0000000040106f38        0x0 
 *fill*         0x0000000040106f38        0x0 
 *fill*         0x0000000040106f38        0x0 
 .text          0x0000000040106f38       0x44 c:/sviluppo/esp8266/sdk/xtensa-lx106-elf/bin/../lib/gcc/xtensa-lx106-elf/4.8.2\libgcc.a(_floatsisf.o)
                0x0000000040106f38                __floatunsisf
                0x0000000040106f40                __floatsisf
 *fill*         0x0000000040106f7c        0x0 
 *fill*         0x0000000040106f7c        0x0 
 *fill*         0x0000000040106f7c        0x0 
 .text          0x0000000040106f7c       0x36 c:/sviluppo/esp8266/sdk/xtensa-lx106-elf/bin/../lib/gcc/xtensa-lx106-elf/4.8.2\libgcc.a(_floatsidf.o)
                0x0000000040106f7c                __floatunsidf
                0x0000000040106f84                __floatsidf
 *fill*         0x0000000040106fb2        0x0 
 *fill*         0x0000000040106fb2        0x0 
 *fill*         0x0000000040106fb2        0x0 
 *fill*         0x0000000040106fb2        0x0 
 *fill*         0x0000000040106fb2        0x0 
 *fill*         0x0000000040106fb2        0x2 
 .text          0x0000000040106fb4       0x48 c:/sviluppo/esp8266/sdk/xtensa-lx106-elf/bin/../lib/gcc/xtensa-lx106-elf/4.8.2\libgcc.a(_umulsidi3.o)
                0x0000000040106fb4                __umulsidi3
 *(.fini.literal)
 *(.fini)
 *(.gnu.version)
                0x0000000040106ffc                _text_end = ABSOLUTE (.)
                0x0000000040106ffc                _etext = .

.lit4           0x0000000040106ffc        0x0
                0x0000000040106ffc                _lit4_start = ABSOLUTE (.)
 *(*.lit4)
 *(.lit4.*)
 *(.gnu.linkonce.lit4.*)
                0x0000000040106ffc                _lit4_end = ABSOLUTE (.)

.irom0.text     0x0000000040240000    0x2b367
                0x0000000040240000                _irom0_text_start = ABSOLUTE (.)
 *(.irom0.literal .irom.literal .irom.text.literal .irom0.text .irom.text)
 .irom0.text    0x0000000040240000      0x50e C:/sviluppo/ESP8266/projects/ESPWebFramework/../../SDK/esp_iot_rtos_sdk-master/lib\libmain.a(app_main.o)
                                        0x62a (size before relaxing)
                0x000000004024002c                read_macaddr_from_otp
                0x0000000040240218                uart_rx_one_char
                0x0000000040240244                wdt_task
                0x0000000040240288                wdt_init
                0x0000000040240378                user_init_task
 *fill*         0x000000004024050e        0x2 
 .irom0.text    0x0000000040240510       0xd4 C:/sviluppo/ESP8266/projects/ESPWebFramework/../../SDK/esp_iot_rtos_sdk-master/lib\libmain.a(misc.o)
                                         0xe4 (size before relaxing)
                0x0000000040240518                os_delay_us
                0x0000000040240518                ets_delay_us
                0x000000004024054c                os_update_cpu_frequency
                0x000000004024054c                ets_update_cpu_frequency
                0x0000000040240558                os_install_putc1
                0x0000000040240560                os_putc
                0x0000000040240578                gpio_output_set
                0x000000004024059c                rtc_get_reset_reason
 .irom0.text    0x00000000402405e4       0x4a C:/sviluppo/ESP8266/projects/ESPWebFramework/../../SDK/esp_iot_rtos_sdk-master/lib\libmain.a(uart.o)
                                         0x4e (size before relaxing)
                0x00000000402405e4                uart_buff_switch
                0x00000000402405f4                uart_div_modify
                0x000000004024062c                Uart_Init
 *fill*         0x000000004024062e        0x2 
 .irom0.text    0x0000000040240630     0x1694 C:/sviluppo/ESP8266/projects/ESPWebFramework/../../SDK/esp_iot_rtos_sdk-master/lib\libmain.a(user_interface.o)
                                       0x1b24 (size before relaxing)
                0x00000000402407c0                system_pp_recycle_rx_pkt
                0x00000000402407d4                system_adc_read
                0x00000000402407f0                system_restart
                0x0000000040240858                system_upgrade_userbin_set
                0x0000000040240870                system_upgrade_userbin_check
                0x000000004024088c                system_upgrade_flag_set
                0x00000000402408ac                system_upgrade_flag_check
                0x00000000402408c8                system_upgrade_reboot
                0x000000004024094c                system_deep_sleep
                0x0000000040240ac8                system_get_time
                0x0000000040240ae8                system_station_got_ip_set
                0x0000000040240bac                system_print_meminfo
                0x0000000040240c1c                system_get_free_heap_size
                0x0000000040240c34                system_get_chip_id
                0x0000000040240c58                system_rtc_clock_cali_proc
                0x0000000040240c88                system_get_rtc_time
                0x0000000040240c9c                wifi_station_dhcpc_start
                0x0000000040240cf4                wifi_station_dhcpc_stop
                0x0000000040240d34                wifi_get_opmode
                0x0000000040240d44                wifi_set_opmode_local
                0x0000000040240d94                wifi_set_opmode
                0x0000000040240df0                wifi_param_save_protect
                0x0000000040240eac                wifi_station_get_config
                0x0000000040240ef4                wifi_station_ap_number_set
                0x000000004024100c                wifi_station_set_config
                0x0000000040241118                wifi_station_get_current_ap_id
                0x0000000040241130                wifi_station_ap_change
                0x0000000040241210                wifi_station_scan
                0x0000000040241254                wifi_station_get_auto_connect
                0x0000000040241268                wifi_station_set_auto_connect
                0x000000004024129c                wifi_station_connect
                0x00000000402412e8                wifi_station_disconnect
                0x000000004024134c                wifi_station_get_connect_status
                0x0000000040241378                wifi_softap_cacl_mac
                0x00000000402413ec                wifi_softap_set_default_ssid
                0x0000000040241444                wifi_softap_get_config
                0x00000000402414e4                wifi_softap_set_config
                0x00000000402416c0                wifi_softap_set_station_info
                0x0000000040241720                wifi_softap_get_station_info
                0x000000004024179c                wifi_softap_free_station_info
                0x00000000402417d4                wifi_softap_deauth
                0x0000000040241880                wifi_get_phy_mode
                0x0000000040241888                wifi_set_phy_mode
                0x0000000040241910                wifi_set_sleep_type
                0x0000000040241938                wifi_get_channel
                0x0000000040241950                wifi_set_channel
                0x0000000040241980                wifi_promiscuous_enable
                0x00000000402419f8                wifi_set_promiscuous_rx_cb
                0x0000000040241a00                wifi_get_ip_info
                0x0000000040241a6c                wifi_set_ip_info
                0x0000000040241b00                wifi_get_macaddr
                0x0000000040241b5c                wifi_set_macaddr
                0x0000000040241bfc                wifi_status_led_install
                0x0000000040241c3c                system_uart_swap
 .irom0.text    0x0000000040241cc4      0x146 C:/sviluppo/ESP8266/projects/ESPWebFramework/../../SDK/esp_iot_rtos_sdk-master/lib\libmain.a(timers.o)
                                        0x172 (size before relaxing)
                0x0000000040241cc8                os_timer_setfn
                0x0000000040241d54                os_timer_arm
                0x0000000040241dec                os_timer_disarm
 *fill*         0x0000000040241e0a        0x2 
 .irom0.text    0x0000000040241e0c      0x121 C:/sviluppo/ESP8266/projects/ESPWebFramework/../../SDK/esp_iot_rtos_sdk-master/lib\libfreertos.a(port.o)
                                        0x145 (size before relaxing)
                0x0000000040241e10                pxPortInitialiseStack
                0x0000000040241e54                xPortStartScheduler
                0x0000000040241e94                vPortEndScheduler
                0x0000000040241ea0                vPortEnterCritical
                0x0000000040241ec8                vPortExitCritical
                0x0000000040241ef0                vPortEnterCritical1
                0x0000000040241f10                vPortExitCritical1
 *fill*         0x0000000040241f2d        0x3 
 .irom0.text    0x0000000040241f30      0x767 C:/sviluppo/ESP8266/projects/ESPWebFramework/../../SDK/esp_iot_rtos_sdk-master/lib\libfreertos.a(queue.o)
                                        0x96b (size before relaxing)
                0x0000000040241f34                xQueueGenericReset
                0x0000000040241fb8                xQueueGenericCreate
                0x0000000040242018                xQueueCreateMutex
                0x0000000040242074                xQueueGenericSend
                0x0000000040242174                xQueueGenericSendFromISR
                0x00000000402421f8                xQueueGenericReceive
                0x0000000040242340                xQueueReceiveFromISR
                0x00000000402423bc                xQueuePeekFromISR
                0x00000000402423fc                uxQueueMessagesWaiting
                0x0000000040242420                uxQueueMessagesWaitingFromISR
                0x0000000040242428                vQueueDelete
                0x00000000402425f0                xQueueIsQueueEmptyFromISR
                0x0000000040242630                xQueueIsQueueFullFromISR
                0x0000000040242644                vQueueWaitForMessageRestricted
 *fill*         0x0000000040242697        0x1 
 .irom0.text    0x0000000040242698      0xbcd C:/sviluppo/ESP8266/projects/ESPWebFramework/../../SDK/esp_iot_rtos_sdk-master/lib\libfreertos.a(tasks.o)
                                        0xeb1 (size before relaxing)
                0x00000000402426a0                xTaskGenericCreate
                0x000000004024279c                vTaskDelete
                0x000000004024280c                vTaskDelayUntil
                0x000000004024287c                vTaskDelay
                0x00000000402428c4                uxTaskPriorityGet
                0x00000000402428f0                vTaskPrioritySet
                0x00000000402429c0                vTaskSuspend
                0x0000000040242a3c                xTaskIsTaskSuspended
                0x0000000040242a60                vTaskResume
                0x0000000040242ad8                xTaskResumeFromISR
                0x0000000040242b74                vTaskStartScheduler
                0x0000000040242bd0                vTaskEndScheduler
                0x0000000040242bf0                vTaskSuspendAll
                0x0000000040242c0c                xTaskResumeAll
                0x0000000040242d08                xTaskGetTickCount
                0x0000000040242d2c                xTaskGetTickCountFromISR
                0x0000000040242d50                uxTaskGetNumberOfTasks
                0x0000000040242d5c                xTaskGetIdleTaskHandle
                0x0000000040242d64                vTaskPlaceOnEventList
                0x0000000040242dbc                vTaskPlaceOnEventListRestricted
                0x0000000040242dfc                xTaskRemoveFromEventList
                0x0000000040242e7c                vTaskSetTimeOutState
                0x0000000040242e90                xTaskCheckForTimeOut
                0x0000000040242ee8                vTaskMissedYield
                0x0000000040243120                uxTaskGetStackHighWaterMark
                0x0000000040243160                xTaskGetCurrentTaskHandle
                0x000000004024316c                xTaskGetSchedulerState
                0x000000004024318c                vTaskPriorityInherit
                0x0000000040243210                vTaskPriorityDisinherit
 *fill*         0x0000000040243265        0x3 
 .irom0.text    0x0000000040243268      0x404 C:/sviluppo/ESP8266/projects/ESPWebFramework/../../SDK/esp_iot_rtos_sdk-master/lib\libfreertos.a(timers.o)
                                        0x4ec (size before relaxing)
                0x0000000040243278                xTimerCreateTimerTask
                0x00000000402432c4                xTimerCreate
                0x0000000040243318                xTimerGenericCommand
                0x0000000040243374                xTimerGetTimerDaemonTaskHandle
                0x0000000040243640                xTimerIsTimerActive
                0x0000000040243668                pvTimerGetTimerID
 .irom0.text    0x000000004024366c     0x1242 C:/sviluppo/ESP8266/projects/ESPWebFramework/../../SDK/esp_iot_rtos_sdk-master/lib\liblwip.a(dhcp.o)
                                       0x14aa (size before relaxing)
                0x0000000040243888                dhcp_coarse_tmr
                0x00000000402438d0                dhcp_fine_tmr
                0x0000000040243afc                dhcp_set_struct
                0x0000000040243b20                dhcp_cleanup
                0x0000000040243b44                dhcp_start
                0x0000000040243bf0                dhcp_inform
                0x0000000040243c98                dhcp_network_changed
                0x0000000040243ce0                dhcp_arp_reply
                0x0000000040243f60                dhcp_renew
                0x0000000040244164                dhcp_release
                0x0000000040244224                dhcp_stop
 *fill*         0x00000000402448ae        0x2 
 .irom0.text    0x00000000402448b0      0x5ef C:/sviluppo/ESP8266/projects/ESPWebFramework/../../SDK/esp_iot_rtos_sdk-master/lib\liblwip.a(dns.o)
                                        0x6b7 (size before relaxing)
                0x00000000402448bc                dns_init
                0x0000000040244910                dns_setserver
                0x000000004024493c                dns_getserver
                0x0000000040244950                dns_tmr
                0x0000000040244e40                dns_gethostbyname
 *fill*         0x0000000040244e9f        0x1 
 .irom0.text    0x0000000040244ea0      0x8fa C:/sviluppo/ESP8266/projects/ESPWebFramework/../../SDK/esp_iot_rtos_sdk-master/lib\liblwip.a(etharp.o)
                                        0xa32 (size before relaxing)
                0x0000000040244f00                etharp_tmr
                0x0000000040245120                etharp_cleanup_netif
                0x000000004024515c                etharp_find_addr
                0x0000000040245368                etharp_output
                0x0000000040245494                etharp_query
                0x00000000402456b0                etharp_request
                0x00000000402456d4                ethernet_input
 *fill*         0x000000004024579a        0x2 
 .irom0.text    0x000000004024579c      0x2d0 C:/sviluppo/ESP8266/projects/ESPWebFramework/../../SDK/esp_iot_rtos_sdk-master/lib\liblwip.a(ip4_addr.o)
                                        0x2e0 (size before relaxing)
                0x000000004024579c                ip4_addr_isbroadcast
                0x00000000402457cc                ip4_addr_netmask_valid
                0x0000000040245810                ipaddr_addr
                0x000000004024582c                ipaddr_aton
                0x0000000040245990                ipaddr_ntoa
                0x00000000402459a8                ipaddr_ntoa_r
 .irom0.text    0x0000000040245a6c      0x4dc C:/sviluppo/ESP8266/projects/ESPWebFramework/../../SDK/esp_iot_rtos_sdk-master/lib\liblwip.a(ip4.o)
                                        0x58c (size before relaxing)
                0x0000000040245a70                ip_route
                0x0000000040245ae8                ip_input
                0x0000000040245d80                ip_output_if
                0x0000000040245f04                ip_output
 .irom0.text    0x0000000040245f48      0x8af C:/sviluppo/ESP8266/projects/ESPWebFramework/../../SDK/esp_iot_rtos_sdk-master/lib\liblwip.a(ip_frag.o)
                                        0x99b (size before relaxing)
                0x0000000040245f4c                ip_reass_tmr
                0x00000000402463ec                ip_reass
                0x00000000402466a0                ip_frag
 *fill*         0x00000000402467f7        0x1 
 .irom0.text    0x00000000402467f8      0x24d C:/sviluppo/ESP8266/projects/ESPWebFramework/../../SDK/esp_iot_rtos_sdk-master/lib\liblwip.a(netif.o)
                                        0x275 (size before relaxing)
                0x00000000402467f8                netif_init
                0x0000000040246800                netif_add
                0x0000000040246858                netif_set_addr
                0x0000000040246880                netif_remove
                0x00000000402468cc                netif_find
                0x000000004024690c                netif_set_ipaddr
                0x0000000040246974                netif_set_gw
                0x0000000040246984                netif_set_netmask
                0x0000000040246994                netif_set_default
                0x000000004024699c                netif_set_up
                0x00000000402469d4                netif_set_down
                0x00000000402469f8                netif_set_link_up
                0x0000000040246a34                netif_set_link_down
 *fill*         0x0000000040246a45        0x3 
 .irom0.text    0x0000000040246a48      0x63e C:/sviluppo/ESP8266/projects/ESPWebFramework/../../SDK/esp_iot_rtos_sdk-master/lib\liblwip.a(pbuf.o)
                                        0x6a2 (size before relaxing)
                0x0000000040246a48                pbuf_alloc
                0x0000000040246b90                pbuf_realloc
                0x0000000040246bd8                pbuf_header
                0x0000000040246c44                pbuf_free
                0x0000000040246cc4                pbuf_clen
                0x0000000040246cdc                pbuf_ref
                0x0000000040246d00                pbuf_cat
                0x0000000040246d2c                pbuf_chain
                0x0000000040246d48                pbuf_dechain
                0x0000000040246d84                pbuf_copy
                0x0000000040246e2c                pbuf_copy_partial
                0x0000000040246eb4                pbuf_take
                0x0000000040246f18                pbuf_coalesce
                0x0000000040246f4c                pbuf_get_at
                0x0000000040246f74                pbuf_memcmp
                0x0000000040246fe8                pbuf_memfind
                0x000000004024703c                pbuf_strstr
 *fill*         0x0000000040247086        0x2 
 .irom0.text    0x0000000040247088      0x1df C:/sviluppo/ESP8266/projects/ESPWebFramework/../../SDK/esp_iot_rtos_sdk-master/lib\liblwip.a(raw.o)
                                        0x22f (size before relaxing)
                0x0000000040247090                raw_input
                0x0000000040247118                raw_bind
                0x0000000040247128                raw_connect
                0x0000000040247138                raw_recv
                0x0000000040247140                raw_sendto
                0x00000000402471dc                raw_send
                0x00000000402471f0                raw_remove
                0x0000000040247224                raw_new
 *fill*         0x0000000040247267        0x1 
 .irom0.text    0x0000000040247268      0x33f C:/sviluppo/ESP8266/projects/ESPWebFramework/../../SDK/esp_iot_rtos_sdk-master/lib\liblwip.a(sys_arch.o)
                                        0x3df (size before relaxing)
                0x0000000040247268                sys_init
                0x000000004024726c                sys_sem_new
                0x00000000402472b4                sys_sem_free
                0x00000000402472c8                sys_sem_signal
                0x00000000402472e4                sys_arch_sem_wait
                0x000000004024735c                sys_mbox_new
                0x0000000040247388                sys_mbox_free
                0x00000000402473a8                sys_mbox_post
                0x00000000402473d0                sys_mbox_trypost
                0x00000000402473fc                sys_arch_mbox_fetch
                0x0000000040247480                sys_arch_mbox_tryfetch
                0x00000000402474a4                sys_mutex_new
                0x00000000402474cc                sys_mutex_lock
                0x00000000402474f0                sys_mutex_unlock
                0x000000004024750c                sys_mutex_free
                0x0000000040247520                sys_now
                0x0000000040247534                sys_thread_new
                0x0000000040247568                sys_arch_protect
                0x000000004024757c                sys_arch_unprotect
                0x0000000040247594                sys_arch_assert
 *fill*         0x00000000402475a7        0x1 
 .irom0.text    0x00000000402475a8     0x10f9 C:/sviluppo/ESP8266/projects/ESPWebFramework/../../SDK/esp_iot_rtos_sdk-master/lib\liblwip.a(tcp_in.o)
                                       0x12c1 (size before relaxing)
                0x00000000402475b0                tcp_input
 *fill*         0x00000000402486a1        0x3 
 .irom0.text    0x00000000402486a4      0x37a C:/sviluppo/ESP8266/projects/ESPWebFramework/../../SDK/esp_iot_rtos_sdk-master/lib\liblwip.a(tcpip.o)
                                        0x46a (size before relaxing)
                0x0000000040248760                tcpip_input
                0x00000000402487b4                tcpip_callback_with_block
                0x0000000040248818                tcpip_timeout
                0x0000000040248868                tcpip_untimeout
                0x00000000402488b4                tcpip_apimsg
                0x0000000040248900                tcpip_callbackmsg_new
                0x0000000040248930                tcpip_callbackmsg_delete
                0x0000000040248944                tcpip_trycallback
                0x0000000040248978                tcpip_init
                0x00000000402489f0                pbuf_free_callback
                0x0000000040248a08                mem_free_callback
 *fill*         0x0000000040248a1e        0x2 
 .irom0.text    0x0000000040248a20      0xd3e C:/sviluppo/ESP8266/projects/ESPWebFramework/../../SDK/esp_iot_rtos_sdk-master/lib\liblwip.a(tcp.o)
                                        0xe9a (size before relaxing)
                0x0000000040248a20                tcp_init
                0x0000000040248a28                tcp_tmr
                0x0000000040248bb8                tcp_close
                0x0000000040248bdc                tcp_shutdown
                0x0000000040248c48                tcp_abandon
                0x0000000040248cdc                tcp_abort
                0x0000000040248cf4                tcp_bind
                0x0000000040248da8                tcp_listen_with_backlog
                0x0000000040248e80                tcp_update_rcv_ann_wnd
                0x0000000040248ebc                tcp_recved
                0x0000000040248f60                tcp_connect
                0x00000000402490a8                tcp_slowtmr
                0x0000000040249354                tcp_fasttmr
                0x00000000402493c8                tcp_process_refused_data
                0x000000004024944c                tcp_segs_free
                0x0000000040249468                tcp_seg_free
                0x0000000040249490                tcp_setprio
                0x0000000040249498                tcp_recv_null
                0x0000000040249550                tcp_alloc
                0x0000000040249620                tcp_new
                0x0000000040249634                tcp_arg
                0x0000000040249638                tcp_recv
                0x0000000040249640                tcp_sent
                0x0000000040249648                tcp_err
                0x0000000040249650                tcp_accept
                0x0000000040249654                tcp_poll
                0x000000004024965c                tcp_pcb_purge
                0x00000000402496a4                tcp_pcb_remove
                0x000000004024970c                tcp_next_iss
                0x000000004024971c                tcp_eff_send_mss_impl
                0x0000000040249754                tcp_debug_state_str
 *fill*         0x000000004024975e        0x2 
 .irom0.text    0x0000000040249760     0x1027 C:/sviluppo/ESP8266/projects/ESPWebFramework/../../SDK/esp_iot_rtos_sdk-master/lib\liblwip.a(tcp_out.o)
                                       0x117f (size before relaxing)
                0x0000000040249860                tcp_send_fin
                0x0000000040249a6c                tcp_write
                0x0000000040249dcc                tcp_enqueue_flags
                0x0000000040249ed0                tcp_send_empty_ack
                0x0000000040249f60                tcp_output
                0x000000004024a39c                tcp_rst_impl
                0x000000004024a4c8                tcp_rexmit_rto
                0x000000004024a500                tcp_rexmit
                0x000000004024a5b0                tcp_rexmit_fast
                0x000000004024a608                tcp_keepalive
                0x000000004024a694                tcp_zero_window_probe
 *fill*         0x000000004024a787        0x1 
 .irom0.text    0x000000004024a788      0x29e C:/sviluppo/ESP8266/projects/ESPWebFramework/../../SDK/esp_iot_rtos_sdk-master/lib\liblwip.a(timers.o)
                                        0x34e (size before relaxing)
                0x000000004024a7c8                tcp_timer_needed
                0x000000004024a89c                sys_timeouts_init
                0x000000004024a8e0                sys_timeout
                0x000000004024a958                sys_untimeout
                0x000000004024a9a4                sys_timeouts_mbox_fetch
 *fill*         0x000000004024aa26        0x2 
 .irom0.text    0x000000004024aa28      0x58d C:/sviluppo/ESP8266/projects/ESPWebFramework/../../SDK/esp_iot_rtos_sdk-master/lib\liblwip.a(udp.o)
                                        0x661 (size before relaxing)
                0x000000004024aa28                udp_init
                0x000000004024aa78                udp_input
                0x000000004024accc                udp_send
                0x000000004024ace0                udp_sendto
                0x000000004024ad24                udp_sendto_if
                0x000000004024ae58                udp_bind
                0x000000004024aed4                udp_connect
                0x000000004024af30                udp_disconnect
                0x000000004024af48                udp_recv
                0x000000004024af50                udp_remove
                0x000000004024af84                udp_new
 *fill*         0x000000004024afb5        0x3 
 .irom0.text    0x000000004024afb8      0x2c9 C:/sviluppo/ESP8266/projects/ESPWebFramework/../../SDK/esp_iot_rtos_sdk-master/lib\liblwip.a(icmp.o)
                                        0x369 (size before relaxing)
                0x000000004024afbc                icmp_input
                0x000000004024b1a4                icmp_dest_unreach
                0x000000004024b1b8                icmp_time_exceeded
 *fill*         0x000000004024b281        0x3 
 .irom0.text    0x000000004024b284       0x24 C:/sviluppo/ESP8266/projects/ESPWebFramework/../../SDK/esp_iot_rtos_sdk-master/lib\liblwip.a(init.o)
                                         0x5c (size before relaxing)
                0x000000004024b284                lwip_init
 .irom0.text    0x000000004024b2a8     0x14db C:/sviluppo/ESP8266/projects/ESPWebFramework/../../SDK/esp_iot_rtos_sdk-master/lib\liblwip.a(sockets.o)
                                       0x1707 (size before relaxing)
                0x000000004024b2a8                lwip_socket_init
                0x000000004024b3a8                lwip_accept
                0x000000004024b4ec                lwip_bind
                0x000000004024b56c                lwip_close
                0x000000004024b5b8                lwip_connect
                0x000000004024b648                lwip_listen
                0x000000004024b6c0                lwip_recvfrom
                0x000000004024b8f8                lwip_read
                0x000000004024b910                lwip_recv
                0x000000004024b924                lwip_send
                0x000000004024b9b8                lwip_sendto
                0x000000004024baac                lwip_socket
                0x000000004024bb28                lwip_write
                0x000000004024bccc                lwip_select
                0x000000004024c084                lwip_shutdown
                0x000000004024c184                lwip_getpeername
                0x000000004024c198                lwip_getsockname
                0x000000004024c1c0                lwip_getsockopt
                0x000000004024c48c                lwip_setsockopt
                0x000000004024c6d4                lwip_ioctl
                0x000000004024c728                lwip_fcntl
 *fill*         0x000000004024c783        0x1 
 .irom0.text    0x000000004024c784      0x6ed C:/sviluppo/ESP8266/projects/ESPWebFramework/../../SDK/esp_iot_rtos_sdk-master/lib\liblwip.a(api_lib.o)
                                        0x821 (size before relaxing)
                0x000000004024c788                netconn_new_with_proto_and_callback
                0x000000004024c7d4                netconn_delete
                0x000000004024c804                netconn_getaddr
                0x000000004024c860                netconn_bind
                0x000000004024c8b4                netconn_connect
                0x000000004024c924                netconn_disconnect
                0x000000004024c978                netconn_listen_with_backlog
                0x000000004024c9c8                netconn_accept
                0x000000004024cb58                netconn_recv_tcp_pbuf
                0x000000004024cb7c                netconn_recv
                0x000000004024cc28                netconn_recved
                0x000000004024cc58                netconn_sendto
                0x000000004024cc80                netconn_send
                0x000000004024ccd8                netconn_write_partly
                0x000000004024cdd8                netconn_close
                0x000000004024cdec                netconn_shutdown
                0x000000004024ce14                netconn_gethostbyname
 *fill*         0x000000004024ce71        0x3 
 .irom0.text    0x000000004024ce74      0xe75 C:/sviluppo/ESP8266/projects/ESPWebFramework/../../SDK/esp_iot_rtos_sdk-master/lib\liblwip.a(api_msg.o)
                                       0x10fd (size before relaxing)
                0x000000004024d2ec                lwip_netconn_do_newconn
                0x000000004024d318                netconn_alloc
                0x000000004024d3a8                netconn_free
                0x000000004024d560                lwip_netconn_do_delconn
                0x000000004024d5f8                lwip_netconn_do_bind
                0x000000004024d6f8                lwip_netconn_do_connect
                0x000000004024d7cc                lwip_netconn_do_disconnect
                0x000000004024d810                lwip_netconn_do_listen
                0x000000004024d8cc                lwip_netconn_do_send
                0x000000004024d95c                lwip_netconn_do_recv
                0x000000004024db28                lwip_netconn_do_write
                0x000000004024db84                lwip_netconn_do_getaddr
                0x000000004024dc18                lwip_netconn_do_close
                0x000000004024dcb4                lwip_netconn_do_gethostbyname
 *fill*         0x000000004024dce9        0x3 
 .irom0.text    0x000000004024dcec      0x15c C:/sviluppo/ESP8266/projects/ESPWebFramework/../../SDK/esp_iot_rtos_sdk-master/lib\liblwip.a(netbuf.o)
                                        0x180 (size before relaxing)
                0x000000004024dcec                netbuf_delete
                0x000000004024dd18                netbuf_alloc
                0x000000004024dd54                netbuf_free
                0x000000004024dd78                netbuf_ref
                0x000000004024ddcc                netbuf_chain
                0x000000004024de00                netbuf_data
                0x000000004024de24                netbuf_next
                0x000000004024de40                netbuf_first
 .irom0.text    0x000000004024de48      0x3ac libuser.a(user_main.o)
                                        0x424 (size before relaxing)
                0x000000004024de48                fdv::Task::entry(void*)
                0x000000004024de78                MainTask::run()
                0x000000004024df1c                Task1::run()
 .irom0.text    0x000000004024e1f4      0x19e libuser.a(fdvserial.o)
                                        0x1c2 (size before relaxing)
                0x000000004024e1f4                fdv::dummy_write_char(char)
                0x000000004024e200                fdv::HardwareSerial::write(unsigned char)
                0x000000004024e224                fdv::DisableStdOut()
                0x000000004024e26c                fdv::HardwareSerial::reconfig(unsigned long)
 *fill*         0x000000004024e392        0x2 
 .irom0.text    0x000000004024e394       0x9c libuser.a(fdvsync.o)
                                         0xac (size before relaxing)
                0x000000004024e398                fdv::DisableWatchDog()
                0x000000004024e3b0                fdv::EnableWatchDog()
                0x000000004024e3c8                fdv::EnableInterrupts()
                0x000000004024e3e0                fdv::DisableInterrupts()
                0x000000004024e3f4                fdv::millisISR()
                0x000000004024e40c                fdv::millis()
                0x000000004024e424                fdv::millisDiff(unsigned long, unsigned long)
 .irom0.text    0x000000004024e430       0x5b libuser.a(fdvutils.o)
                                         0x6b (size before relaxing)
                0x000000004024e430                operator new(unsigned int)
                0x000000004024e444                operator new[](unsigned int)
                0x000000004024e458                operator delete(void*)
                0x000000004024e46c                operator delete[](void*)
                0x000000004024e480                abort
                0x000000004024e484                __cxa_pure_virtual
                0x000000004024e488                __cxa_deleted_virtual
 *fill*         0x000000004024e48b        0x1 
 .irom0.literal
                0x000000004024e48c        0xc c:/sviluppo/esp8266/sdk/xtensa-lx106-elf/bin/../lib/gcc/xtensa-lx106-elf/4.8.2/../../../../xtensa-lx106-elf/lib\libcirom.a(lib_a-strcmp.o)
                                         0x20 (size before relaxing)
 .irom0.literal
                0x000000004024e498        0x0 c:/sviluppo/esp8266/sdk/xtensa-lx106-elf/bin/../lib/gcc/xtensa-lx106-elf/4.8.2/../../../../xtensa-lx106-elf/lib\libcirom.a(lib_a-strlen.o)
                                          0xc (size before relaxing)
 .irom0.literal
                0x000000004024e498        0x8 c:/sviluppo/esp8266/sdk/xtensa-lx106-elf/bin/../lib/gcc/xtensa-lx106-elf/4.8.2/../../../../xtensa-lx106-elf/lib\libcirom.a(lib_a-strncmp.o)
 .irom0.literal
                0x000000004024e4a0        0x0 c:/sviluppo/esp8266/sdk/xtensa-lx106-elf/bin/../lib/gcc/xtensa-lx106-elf/4.8.2/../../../../xtensa-lx106-elf/lib\libcirom.a(lib_a-strncpy.o)
                                          0xc (size before relaxing)
 .irom0.text    0x000000004024e4a0       0xff c:/sviluppo/esp8266/sdk/xtensa-lx106-elf/bin/../lib/gcc/xtensa-lx106-elf/4.8.2/../../../../xtensa-lx106-elf/lib\libcirom.a(lib_a-strcmp.o)
                0x000000004024e4a0                strcmp
 *fill*         0x000000004024e59f        0x1 
 .irom0.text    0x000000004024e5a0       0x5b c:/sviluppo/esp8266/sdk/xtensa-lx106-elf/bin/../lib/gcc/xtensa-lx106-elf/4.8.2/../../../../xtensa-lx106-elf/lib\libcirom.a(lib_a-strlen.o)
                0x000000004024e5a0                strlen
 *fill*         0x000000004024e5fb        0x1 
 .irom0.text    0x000000004024e5fc       0xd8 c:/sviluppo/esp8266/sdk/xtensa-lx106-elf/bin/../lib/gcc/xtensa-lx106-elf/4.8.2/../../../../xtensa-lx106-elf/lib\libcirom.a(lib_a-strncmp.o)
                0x000000004024e5fc                strncmp
 .irom0.text    0x000000004024e6d4       0xfa C:/sviluppo/ESP8266/projects/ESPWebFramework/../../SDK/esp_iot_rtos_sdk-master/lib\libphy.a(phy.o)
                                        0x11e (size before relaxing)
                0x000000004024e6d8                rf_init
                0x000000004024e6f4                bb_init
                0x000000004024e70c                phy_init
                0x000000004024e73c                RFChannelSel
                0x000000004024e758                phy_delete_channel
                0x000000004024e770                phy_enable_agc
                0x000000004024e788                phy_disable_agc
                0x000000004024e7a0                phy_initialize_bb
                0x000000004024e7b8                phy_set_sense
 *fill*         0x000000004024e7ce        0x2 
 .irom0.text    0x000000004024e7d0     0x14be C:/sviluppo/ESP8266/projects/ESPWebFramework/../../SDK/esp_iot_rtos_sdk-master/lib\libphy.a(phy_chip_v6_ana.o)
                                       0x168e (size before relaxing)
                0x000000004024e7d4                ram_pbus_set_rxgain
                0x000000004024e8a8                ram_pbus_debugmode
                0x000000004024e95c                ram_pbus_xpd_tx_on
                0x000000004024e9c8                set_rf_freq_offset
                0x000000004024ea38                chip_v6_rxmax_ext_ana
                0x000000004024eb88                ram_chip_v6_rx_init
                0x000000004024ebb8                tsen_meas
                0x000000004024ec64                readvdd33
                0x000000004024edf4                txpwr_offset
                0x000000004024ee9c                set_txcap_reg
                0x000000004024ef1c                ram_restart_cal
                0x000000004024ef88                wait_rfpll_cal_end
                0x000000004024f020                ram_rfpll_set_freq
                0x000000004024f12c                ram_set_channel_freq
                0x000000004024f434                chip_60_set_channel
                0x000000004024f520                chip_v6_set_chan_offset
                0x000000004024f58c                chip_v6_set_chan
                0x000000004024f604                chip_v6_set_chan_wakeup
                0x000000004024f684                chip_v6_rf_init
                0x000000004024f890                low_power_set
                0x000000004024f8f0                test_tout
                0x000000004024fb1c                check_data_flag
                0x000000004024fb3c                get_check_flag
 *fill*         0x000000004024fc8e        0x2 
 .irom0.text    0x000000004024fc90     0x3439 C:/sviluppo/ESP8266/projects/ESPWebFramework/../../SDK/esp_iot_rtos_sdk-master/lib\libphy.a(phy_chip_v6.o)
                                       0x3a51 (size before relaxing)
                0x000000004024fc90                ram_tx_mac_enable
                0x000000004024fc94                rtc_mem_backup
                0x000000004024fcc4                rtc_mem_recovery
                0x000000004024fcf4                set_cal_rxdc
                0x000000004024fdb0                set_rx_gain_cal_iq
                0x0000000040250110                gen_rx_gain_table
                0x0000000040250250                pbus_set_rxbbgain
                0x00000000402502d4                set_rx_gain_testchip_50
                0x00000000402505ec                ram_get_corr_power
                0x00000000402506dc                check_data_func
                0x00000000402506fc                do_noisefloor_lsleep_v50
                0x0000000040250730                do_noisefloor
                0x00000000402507a0                start_dig_rx
                0x00000000402507e4                stop_dig_rx
                0x0000000040250810                chip_v6_set_chanfreq
                0x0000000040250840                tx_cap_init
                0x00000000402509fc                target_power_add_backoff
                0x0000000040250a4c                tx_pwctrl_init_cal
                0x0000000040250bb4                tx_atten_set_interp
                0x0000000040250e28                tx_pwctrl_init
                0x0000000040250f24                ram_get_noisefloor
                0x0000000040250f40                get_noisefloor_sat
                0x0000000040250f70                ram_set_noise_floor
                0x0000000040250fcc                ram_start_noisefloor
                0x0000000040251018                read_hw_noisefloor
                0x0000000040251044                noise_check_loop
                0x00000000402511ac                noise_init
                0x00000000402513ac                target_power_backoff
                0x0000000040251400                sdt_on_noise_start
                0x0000000040251484                chip_v6_set_chan_rx_cmp
                0x000000004025160c                chip_v6_set_chan_misc
                0x000000004025169c                phy_dig_spur_set
                0x00000000402519fc                phy_dig_spur_prot
                0x0000000040251c34                chip_v6_rxmax_ext_dig
                0x0000000040251c80                chip_v6_rxmax_ext
                0x0000000040251d30                phy_bb_rx_cfg
                0x00000000402520e8                uart_wait_idle
                0x0000000040252118                phy_pbus_soc_cfg
                0x00000000402521d8                phy_gpio_cfg
                0x000000004025250c                tx_cont_en
                0x00000000402525b4                tx_cont_dis
                0x0000000040252608                tx_cont_cfg
                0x000000004025262c                chip_v6_initialize_bb
                0x00000000402527d0                periodic_cal
                0x00000000402528dc                bbpll_cal
                0x0000000040252968                periodic_cal_top
                0x00000000402529c8                register_chipv6_phy_init_param
                0x0000000040252c4c                change_bbpll160_sleep
                0x0000000040252d3c                change_bbpll160
                0x0000000040252d6c                set_crystal_uart
                0x0000000040252ddc                ant_switch_init
                0x0000000040252ec4                register_chipv6_phy
 *fill*         0x00000000402530c9        0x3 
 .irom0.text    0x00000000402530cc     0x2543 C:/sviluppo/ESP8266/projects/ESPWebFramework/../../SDK/esp_iot_rtos_sdk-master/lib\libphy.a(phy_chip_v6_cal.o)
                                       0x27e3 (size before relaxing)
                0x00000000402530cc                txbbgain2dcoindex
                0x00000000402530ec                dcoindex2txbbgain
                0x0000000040253110                init_cal_dcoffset
                0x00000000402531d4                set_rfanagain_dc_reg
                0x0000000040253270                set_txdc_pbus
                0x00000000402532dc                get_rf_gain_qdb
                0x0000000040253304                correct_rf_ana_gain
                0x000000004025340c                get_sar_dout
                0x00000000402534a4                cal_rf_ana_gain
                0x000000004025357c                meas_tone_pwr_db
                0x00000000402535ec                tx_pwr_backoff
                0x0000000040253738                get_fcc_1m2m_pwr_offset
                0x0000000040253774                ram_set_txbb_atten
                0x0000000040253808                txiq_get_mis_pwr
                0x00000000402538ac                txiq_cover
                0x0000000040253ac8                ram_rfcal_txiq
                0x0000000040253d34                rc_cal
                0x0000000040253ef0                get_target_power_offset
                0x0000000040253fe4                get_pwctrl_correct
                0x000000004025403c                tx_pwctrl_cal
                0x000000004025437c                tx_pwctrl_bg_init
                0x00000000402543ec                tx_pwctrl_background
                0x0000000040254518                read_sar_dout
                0x000000004025457c                ram_get_fm_sar_dout
                0x0000000040254620                ram_cal_tos_v60
                0x0000000040254800                ram_get_bb_atten
                0x0000000040254830                ram_rfcal_txcap
                0x00000000402549f4                ram_rfcal_pwrctrl
                0x0000000040254c10                ram_rxiq_get_mis
                0x0000000040254de0                ram_rxiq_cover_mg_mp
                0x0000000040254f84                ram_rfcal_rxiq
                0x0000000040255190                dpd_scale_set
                0x00000000402551d8                dpd_mem_write
                0x0000000040255260                dpd_init
 *fill*         0x000000004025560f        0x1 
 .irom0.text    0x0000000040255610      0x269 C:/sviluppo/ESP8266/projects/ESPWebFramework/../../SDK/esp_iot_rtos_sdk-master/lib\libphy.a(phy_chip_v6_unused.o)
                                        0x2fd (size before relaxing)
                0x0000000040255610                chip_v6_set_sense
                0x0000000040255614                chip_v6_get_sense
                0x0000000040255618                chip_v6_unset_chanfreq
                0x0000000040255624                data_collect
                0x00000000402556f8                operation_test
                0x0000000040255770                slop_wdt_feed
                0x0000000040255784                slop_test
                0x0000000040255830                wd_reset_cnt
 *fill*         0x0000000040255879        0x3 
 .irom0.text    0x000000004025587c      0xbce C:/sviluppo/ESP8266/projects/ESPWebFramework/../../SDK/esp_iot_rtos_sdk-master/lib\libphy.a(phy_sleep.o)
                                        0xe02 (size before relaxing)
                0x000000004025587c                pm_usec2rtc
                0x00000000402558b0                pm_rtc2usec
                0x00000000402558bc                pm_set_sleep_cycles
                0x00000000402558e4                pm_sleep_opt
                0x00000000402559d4                pm_wakeup_opt
                0x0000000040255a0c                get_chip_version
                0x0000000040255a4c                pm_sleep_opt_bb_off
                0x0000000040255a8c                pm_sleep_opt_bb_on
                0x0000000040255ad8                pm_set_pll_xtal_wait_time
                0x0000000040255b20                pm_prepare_to_sleep
                0x0000000040255b44                pm_sdio_nidle
                0x0000000040255bc0                pm_goto_sleep
                0x0000000040255c3c                pm_wait4wakeup
                0x0000000040255c74                pm_open_rf
                0x0000000040255cb8                pm_sleep_set_mac
                0x0000000040255d3c                pm_set_wakeup_mac
                0x0000000040255dd8                pm_check_mac_idle
                0x0000000040255e30                pm_set_sleep_btco
                0x0000000040255ec8                pm_set_wakeup_btco
                0x0000000040255fd0                pm_set_sleep_mode
                0x00000000402560a0                pm_unmask_bt
                0x0000000040256100                pm_wakeup_init
                0x00000000402562f0                sleep_opt_8266
                0x0000000040256310                sleep_opt_bb_on_8266
                0x0000000040256348                sleep_reset_analog_rtcreg_8266
 *fill*         0x000000004025644a        0x2 
 .irom0.text    0x000000004025644c      0x9c8 C:/sviluppo/ESP8266/projects/ESPWebFramework/../../SDK/esp_iot_rtos_sdk-master/lib\libphy.a(phy_chip_v5_romfunc.o)
                                        0xab4 (size before relaxing)
                0x000000004025644c                rom_abs_temp
                0x0000000040256458                rom_chip_v5_disable_cca
                0x0000000040256474                rom_chip_v5_enable_cca
                0x0000000040256494                rom_chip_v5_sense_backoff
                0x00000000402564e0                rom_dc_iq_est
                0x000000004025653c                rom_en_pwdet
                0x00000000402565ac                rom_get_bb_atten
                0x00000000402565d4                rom_get_corr_power
                0x0000000040256650                rom_get_fm_sar_dout
                0x00000000402566ec                rom_get_noisefloor
                0x0000000040256708                rom_get_power_db
                0x0000000040256758                rom_iq_est_disable
                0x0000000040256788                rom_iq_est_enable
                0x00000000402567dc                rom_linear_to_db
                0x0000000040256854                rom_set_txclk_en
                0x0000000040256898                rom_set_rxclk_en
                0x00000000402568e8                rom_mhz2ieee
                0x000000004025694c                rom_rxiq_get_mis
                0x0000000040256a74                rom_sar_init
                0x0000000040256ac8                rom_set_ana_inf_tx_scale
                0x0000000040256b04                rom_set_loopback_gain
                0x0000000040256b68                rom_set_noise_floor
                0x0000000040256ba4                rom_start_noisefloor
                0x0000000040256be0                rom_start_tx_tone
                0x0000000040256cac                rom_stop_tx_tone
                0x0000000040256d38                rom_txtone_linear_pwr
                0x0000000040256da4                rom_tx_mac_disable
                0x0000000040256de0                rom_tx_mac_enable
 .irom0.text    0x0000000040256e14      0xf83 C:/sviluppo/ESP8266/projects/ESPWebFramework/../../SDK/esp_iot_rtos_sdk-master/lib\libphy.a(phy_chip_v5_ana_romfunc.o)
                                       0x112b (size before relaxing)
                0x0000000040256e14                rom_ana_inf_gating_en
                0x0000000040256f80                rom_set_channel_freq
                0x0000000040257298                rom_chip_50_set_channel
                0x0000000040257498                rom_chip_v5_rx_init
                0x0000000040257504                rom_chip_v5_tx_init
                0x00000000402575d8                rom_i2c_readReg
                0x000000004025760c                rom_i2c_readReg_Mask
                0x0000000040257648                rom_i2c_writeReg
                0x000000004025767c                rom_i2c_writeReg_Mask
                0x00000000402576ec                rom_pbus_debugmode
                0x000000004025777c                rom_pbus_enter_debugmode
                0x00000000402577b0                rom_pbus_exit_debugmode
                0x00000000402577e4                rom_pbus_force_test
                0x0000000040257840                rom_pbus_rd
                0x00000000402578ac                rom_pbus_set_rxgain
                0x0000000040257970                rom_pbus_set_txgain
                0x00000000402579a4                rom_pbus_workmode
                0x00000000402579e4                rom_pbus_xpd_rx_off
                0x0000000040257a2c                rom_pbus_xpd_rx_on
                0x0000000040257a5c                rom_pbus_xpd_tx_off
                0x0000000040257a9c                rom_pbus_xpd_tx_on
                0x0000000040257afc                rom_pbus_xpd_tx_on__low_gain
                0x0000000040257b60                rom_phy_reset_req
                0x0000000040257b78                rom_restart_cal
                0x0000000040257bc4                rom_rfpll_reset
                0x0000000040257c34                rom_write_rfpll_sdm
                0x0000000040257cb8                rom_rfpll_set_freq
 *fill*         0x0000000040257d97        0x1 
 .irom0.text    0x0000000040257d98     0x1136 C:/sviluppo/ESP8266/projects/ESPWebFramework/../../SDK/esp_iot_rtos_sdk-master/lib\libphy.a(phy_chip_v5_cal_romfunc.o)
                                       0x124a (size before relaxing)
                0x0000000040257d98                rom_cal_tos_v50
                0x0000000040257f44                rom_pbus_dco_( [2]) static
                0x00000000402581fc                rom_rfcal_pwrctrl
                0x0000000040258384                rom_rfcal_rxiq
                0x0000000040258590                rom_rfcal_rxiq_set_reg
                0x0000000040258694                rom_rfcal_txcap
                0x00000000402588f4                rom_rfcal_txiq
                0x0000000040258b40                rom_rfcal_txiq_cover
                0x0000000040258b44                rom_rfcal_txiq_set_reg
                0x0000000040258c20                rom_rxiq_cover_mg_mp
                0x0000000040258d6c                rom_set_txbb_atten
                0x0000000040258e3c                rom_set_txiq_cal
 *fill*         0x0000000040258ece        0x2 
 .irom0.text    0x0000000040258ed0       0xde C:/sviluppo/ESP8266/projects/ESPWebFramework/../../SDK/esp_iot_rtos_sdk-master/lib\libpp.a(lmac.o)
                                         0xf2 (size before relaxing)
                0x0000000040258ed4                lmacInitAc
                0x0000000040258f08                lmacInit
 *fill*         0x0000000040258fae        0x2 
 .irom0.text    0x0000000040258fb0     0x1069 C:/sviluppo/ESP8266/projects/ESPWebFramework/../../SDK/esp_iot_rtos_sdk-master/lib\libpp.a(pm.o)
                                       0x13dd (size before relaxing)
                0x0000000040258fb8                pm_rtc_clock_cali_proc
                0x0000000040258fe8                pm_set_sleep_time
                0x00000000402590f0                pm_rf_is_closed
                0x000000004025910c                pm_set_sleep_type_from_upper
                0x0000000040259210                uart_tx_flush
                0x000000004025921c                pm_suspend
                0x0000000040259444                pm_shutdown
                0x000000004025951c                pm_reset_idle_sleep
                0x0000000040259554                pm_idle_sleep
                0x0000000040259560                pm_open
                0x0000000040259634                pm_onBcnRx
                0x0000000040259ae4                pm_enable_gpio_wakeup
                0x0000000040259b0c                pm_attach
                0x0000000040259bbc                pm_send_nullfunc
                0x0000000040259d74                pm_is_waked
                0x0000000040259d8c                pm_is_open
                0x0000000040259da4                pm_scan_lock
                0x0000000040259dd4                pm_try_scan_unlock
                0x0000000040259dec                pm_force_scan_unlock
                0x0000000040259ea8                pm_scan_unlocked
                0x0000000040259ebc                pm_allow_tx
                0x0000000040259edc                pm_assoc_parse
                0x0000000040259ef4                pm_set_addr
                0x0000000040259f14                pm_sleep_for
                0x0000000040259f44                pm_post
                0x0000000040259fd8                pm_get_idle_wait_time
 *fill*         0x000000004025a019        0x3 
 .irom0.text    0x000000004025a01c      0xa49 C:/sviluppo/ESP8266/projects/ESPWebFramework/../../SDK/esp_iot_rtos_sdk-master/lib\libpp.a(pp.o)
                                        0xbfd (size before relaxing)
                0x000000004025a0c4                pp_disable_noise_timer
                0x000000004025a0e0                pp_enable_noise_timer
                0x000000004025a134                pp_noise_test
                0x000000004025a14c                pp_disable_idle_timer
                0x000000004025a170                pp_enable_idle_timer
                0x000000004025a19c                pp_try_enable_idle_timer
                0x000000004025a2b8                ppTxPkt
                0x000000004025a470                ppRegisterTxCallback
                0x000000004025a738                pp_attach
                0x000000004025a83c                MacIsrSigPostDefHdl
 *fill*         0x000000004025aa65        0x3 
 .irom0.text    0x000000004025aa68      0x296 C:/sviluppo/ESP8266/projects/ESPWebFramework/../../SDK/esp_iot_rtos_sdk-master/lib\libpp.a(rate_control.o)
                                        0x2a2 (size before relaxing)
                0x000000004025acb4                RC_SetBasicRate
 *fill*         0x000000004025acfe        0x2 
 .irom0.text    0x000000004025ad00      0x409 C:/sviluppo/ESP8266/projects/ESPWebFramework/../../SDK/esp_iot_rtos_sdk-master/lib\libpp.a(trc.o)
                                        0x469 (size before relaxing)
                0x000000004025ad2c                rcUpdatePhyMode
                0x000000004025ae08                rcAttach
                0x000000004025ae54                rcGetTrc
                0x000000004025ae5c                trc_onDisconnect
                0x000000004025ae60                trc_onScanStart
                0x000000004025ae80                trc_onScanDone
                0x000000004025aea0                rc_enable_trc
                0x000000004025af60                rc_get_mask
                0x000000004025af74                rc_disable_trc
                0x000000004025afec                rc_disable_trc_by_interface
                0x000000004025b00c                rc_get_sta_trc
                0x000000004025b04c                rc_get_trc
                0x000000004025b0bc                rc_get_trc_by_index
                0x000000004025b0dc                rc_only_sta_trc
 *fill*         0x000000004025b109        0x3 
 .irom0.text    0x000000004025b10c      0x757 C:/sviluppo/ESP8266/projects/ESPWebFramework/../../SDK/esp_iot_rtos_sdk-master/lib\libpp.a(wdev.o)
                                        0x807 (size before relaxing)
                0x000000004025b118                wDev_Option_Init
                0x000000004025b3dc                wDev_Initialize
                0x000000004025b444                wDevForceAck6M
                0x000000004025b460                wDev_SetMacAddress
                0x000000004025b500                wDev_SetRxPolicy
                0x000000004025b554                wDev_SetBssid
                0x000000004025b62c                wDev_ClearBssid
                0x000000004025b664                wDev_Insert_KeyEntry
                0x000000004025b738                wDev_remove_KeyEntry
                0x000000004025b778                wDev_Crypto_Conf
                0x000000004025b814                wDev_Crypto_Disable
                0x000000004025b84c                wDevEnableRx
 *fill*         0x000000004025b863        0x1 
 .irom0.text    0x000000004025b864      0x129 C:/sviluppo/ESP8266/projects/ESPWebFramework/../../SDK/esp_iot_rtos_sdk-master/lib\libpp.a(esf_buf.o)
                                        0x141 (size before relaxing)
                0x000000004025b880                esf_buf_setup
 *fill*         0x000000004025b98d        0x3 
 .irom0.text    0x000000004025b990      0x3ae C:/sviluppo/ESP8266/projects/ESPWebFramework/../../SDK/esp_iot_rtos_sdk-master/lib\libpp.a(if_hwctrl.o)
                                        0x47a (size before relaxing)
                0x000000004025b994                ic_get_addr
                0x000000004025b9a0                ic_set_opmode
                0x000000004025b9b4                ic_enable_interface
                0x000000004025ba04                ic_interface_enabled
                0x000000004025ba18                ic_disable_interface
                0x000000004025ba60                ic_is_pure_sta
                0x000000004025ba7c                ic_get_ptk_alg
                0x000000004025ba8c                ic_get_gtk_alg
                0x000000004025ba9c                ic_set_ptk_alg
                0x000000004025baac                ic_set_gtk_alg
                0x000000004025babc                ic_interface_is_p2p
                0x000000004025bb48                ic_set_vif
                0x000000004025bbbc                ic_set_sta
                0x000000004025bc74                ic_bss_info_update
                0x000000004025bcd0                ic_set_key
                0x000000004025bd2c                ic_remove_key
 *fill*         0x000000004025bd3e        0x2 
 .irom0.text    0x000000004025bd40      0x342 C:/sviluppo/ESP8266/projects/ESPWebFramework/../../SDK/esp_iot_rtos_sdk-master/lib\libnet80211.a(ieee80211.o)
                                        0x41e (size before relaxing)
                0x000000004025bdd4                ieee80211_task
                0x000000004025be28                ieee80211_ifattach
                0x000000004025be6c                ieee80211_mhz2ieee
                0x000000004025bec4                ieee80211_chan2ieee
                0x000000004025bee4                ieee80211_ieee2mhz
                0x000000004025bf1c                ieee80211_find_channel
                0x000000004025bf44                ieee80211_find_channel_byieee
                0x000000004025bf88                wifi_mode_set
 *fill*         0x000000004025c082        0x2 
 .irom0.text    0x000000004025c084       0xae C:/sviluppo/ESP8266/projects/ESPWebFramework/../../SDK/esp_iot_rtos_sdk-master/lib\libnet80211.a(ieee80211_crypto.o)
                                         0xb6 (size before relaxing)
                0x000000004025c084                ieee80211_crypto_attach
                0x000000004025c088                ieee80211_crypto_available
                0x000000004025c08c                ieee80211_crypto_setkey
                0x000000004025c090                ieee80211_crypto_encap
                0x000000004025c0e0                ieee80211_crypto_decap
 *fill*         0x000000004025c132        0x2 
 .irom0.text    0x000000004025c134       0x49 C:/sviluppo/ESP8266/projects/ESPWebFramework/../../SDK/esp_iot_rtos_sdk-master/lib\libnet80211.a(ieee80211_ets.o)
                0x000000004025c138                ieee80211_getmgtframe
 *fill*         0x000000004025c17d        0x3 
 .irom0.text    0x000000004025c180      0xf19 C:/sviluppo/ESP8266/projects/ESPWebFramework/../../SDK/esp_iot_rtos_sdk-master/lib\libnet80211.a(ieee80211_hostap.o)
                                       0x1221 (size before relaxing)
                0x000000004025c490                ieee80211_hostap_attach
                0x000000004025c540                hostap_handle_timer
                0x000000004025c5c4                hostap_input
                0x000000004025ce94                wifi_softap_start
                0x000000004025cfdc                wifi_softap_stop
 *fill*         0x000000004025d099        0x3 
 .irom0.text    0x000000004025d09c      0xa87 C:/sviluppo/ESP8266/projects/ESPWebFramework/../../SDK/esp_iot_rtos_sdk-master/lib\libnet80211.a(ieee80211_ht.o)
                                        0xb4f (size before relaxing)
                0x000000004025d0ac                ieee80211_ht_attach
                0x000000004025d0fc                ieee80211_ht_node_init
                0x000000004025d140                ieee80211_ht_node_cleanup
                0x000000004025d178                ieee80211_parse_htcap
                0x000000004025d250                ieee80211_ht_updateparams
                0x000000004025d368                ieee80211_setup_htrates
                0x000000004025d43c                ieee80211_setup_basic_htrates
                0x000000004025d7a4                ieee80211_add_htcap
                0x000000004025d7c0                ieee80211_add_htcap_vendor
                0x000000004025d8e0                ieee80211_add_htinfo
                0x000000004025d8fc                ieee80211_add_htinfo_vendor
 *fill*         0x000000004025db23        0x1 
 .irom0.text    0x000000004025db24      0x860 C:/sviluppo/ESP8266/projects/ESPWebFramework/../../SDK/esp_iot_rtos_sdk-master/lib\libnet80211.a(ieee80211_input.o)
                                        0x8e4 (size before relaxing)
                0x000000004025db24                ieee80211_deliver_data
                0x000000004025db68                ieee80211_decap
                0x000000004025dc64                ieee80211_setup_rates
                0x000000004025dccc                ieee80211_alloc_challenge
                0x000000004025dd00                ieee80211_parse_beacon
                0x000000004025e16c                ieee80211_parse_wpa
                0x000000004025e284                ieee80211_parse_rsn
                0x000000004025e380                ieee80211_setup_rateset
 .irom0.text    0x000000004025e384     0x17c3 C:/sviluppo/ESP8266/projects/ESPWebFramework/../../SDK/esp_iot_rtos_sdk-master/lib\libnet80211.a(ieee80211_output.o)
                                       0x1a7b (size before relaxing)
                0x000000004025e388                ieee80211_output_pbuf
                0x000000004025e60c                ieee80211_send_setup
                0x000000004025e720                ieee80211_mgmt_output
                0x000000004025e814                ieee80211_tx_mgt_cb
                0x000000004025e818                ieee80211_send_nulldata
                0x000000004025ec60                ieee80211_add_rates
                0x000000004025ec98                ieee80211_add_xrates
                0x000000004025ed34                ieee80211_send_probereq
                0x000000004025eee0                ieee80211_getcapinfo
                0x000000004025ef3c                ieee80211_send_mgmt
                0x000000004025f48c                ieee80211_alloc_proberesp
                0x000000004025f680                ieee80211_send_proberesp
                0x000000004025f9fc                ieee80211_beacon_alloc
 *fill*         0x000000004025fb47        0x1 
 .irom0.text    0x000000004025fb48      0x147 C:/sviluppo/ESP8266/projects/ESPWebFramework/../../SDK/esp_iot_rtos_sdk-master/lib\libnet80211.a(ieee80211_phy.o)
                                        0x16f (size before relaxing)
                0x000000004025fb4c                ieee80211_get_11g_ratetable
                0x000000004025fb58                ieee80211_get_ratetable
                0x000000004025fb70                ieee80211_phy_init
                0x000000004025fba4                ieee80211_phy_type_get
                0x000000004025fbb4                ieee80211_setup_ratetable
                0x000000004025fbe8                ieee80211_compute_duration
                0x000000004025fc68                ieee80211_dot11Rate_rix
 *fill*         0x000000004025fc8f        0x1 
 .irom0.text    0x000000004025fc90      0x164 C:/sviluppo/ESP8266/projects/ESPWebFramework/../../SDK/esp_iot_rtos_sdk-master/lib\libnet80211.a(ieee80211_power.o)
                                        0x17c (size before relaxing)
                0x000000004025fc90                ieee80211_psq_init
                0x000000004025fca8                ieee80211_psq_cleanup
                0x000000004025fcb0                ieee80211_set_tim
                0x000000004025fcf0                ieee80211_pwrsave
                0x000000004025fdc0                ieee80211_node_pwrsave
 .irom0.text    0x000000004025fdf4      0x157 C:/sviluppo/ESP8266/projects/ESPWebFramework/../../SDK/esp_iot_rtos_sdk-master/lib\libnet80211.a(ieee80211_proto.o)
                                        0x177 (size before relaxing)
                0x000000004025fdf8                ieee80211_proto_attach
                0x000000004025fe20                ieee80211_set_shortslottime
                0x000000004025fe3c                ieee80211_iserp_rateset
                0x000000004025fed0                ieee80211_setbasicrates
                0x000000004025fee4                ieee80211_addbasicrates
                0x000000004025fef8                ieee80211_wme_initparams
                0x000000004025fefc                ieee80211_wme_updateparams
                0x000000004025ff00                ieee80211_mlme_connect_bss
 *fill*         0x000000004025ff4b        0x1 
 .irom0.text    0x000000004025ff4c      0xc4d C:/sviluppo/ESP8266/projects/ESPWebFramework/../../SDK/esp_iot_rtos_sdk-master/lib\libnet80211.a(ieee80211_scan.o)
                                        0xf51 (size before relaxing)
                0x000000004025ff5c                ieee80211_scan_attach
                0x000000004025ffdc                scan_start
                0x0000000040260234                scan_cancel
                0x0000000040260348                scan_add_bssid
                0x000000004026036c                scan_remove_bssid
                0x0000000040260378                scan_hidden_ssid
                0x0000000040260380                scan_add_probe_ssid
                0x00000000402603c0                scan_remove_probe_ssid
                0x00000000402604f4                scan_clear_channles
                0x0000000040260564                scan_set_desChan
                0x0000000040260570                scan_get_type
                0x0000000040260578                cannel_scan_connect_state
                0x0000000040260594                scan_connect_state
                0x00000000402605e4                scan_profile_check
                0x0000000040260724                clear_bss_queue
                0x0000000040260790                scan_check_hidden
                0x00000000402608d8                scan_parse_beacon
 *fill*         0x0000000040260b99        0x3 
 .irom0.text    0x0000000040260b9c      0xb62 C:/sviluppo/ESP8266/projects/ESPWebFramework/../../SDK/esp_iot_rtos_sdk-master/lib\libnet80211.a(ieee80211_sta.o)
                                        0xd39 (size before relaxing)
                0x0000000040260bc4                sta_status_set
                0x0000000040260c00                ieee80211_sta_new_state
                0x0000000040260dd0                sta_input
                0x0000000040261160                ieee80211_parse_wmeparams
                0x000000004026163c                wifi_station_start
                0x00000000402616c8                wifi_station_stop
 *fill*         0x00000000402616fe        0x2 
 .irom0.text    0x0000000040261700      0x25a C:/sviluppo/ESP8266/projects/ESPWebFramework/../../SDK/esp_iot_rtos_sdk-master/lib\libnet80211.a(wl_chm.o)
                                        0x2ee (size before relaxing)
                0x000000004026170c                chm_init
                0x00000000402617ac                chm_start_op
                0x000000004026184c                chm_end_op
                0x0000000040261898                chm_set_current_channel
                0x0000000040261904                chm_freq2index
                0x000000004026192c                chm_check_same_channel
 *fill*         0x000000004026195a        0x2 
 .irom0.text    0x000000004026195c     0x1221 C:/sviluppo/ESP8266/projects/ESPWebFramework/../../SDK/esp_iot_rtos_sdk-master/lib\libnet80211.a(wl_cnx.o)
                                       0x160d (size before relaxing)
                0x0000000040261968                cnx_attach
                0x00000000402619a4                cnx_sta_connect_led_timer_cb
                0x00000000402619fc                cnx_sta_connect_cmd
                0x0000000040261ac4                cnx_sta_scan_cmd
                0x0000000040261d18                cnx_connect_timeout
                0x0000000040261d50                cnx_start_handoff_cb
                0x0000000040262144                cnx_bss_alloc
                0x00000000402621f4                cnx_rc_search
                0x00000000402622bc                cnx_add_rc
                0x00000000402623a8                cnx_remove_rc
                0x000000004026247c                cnx_rc_update_rssi
                0x0000000040262500                cnx_rc_update_state_metric
                0x000000004026256c                cnx_rc_update_age
                0x0000000040262590                cnx_update_bss
                0x00000000402625c0                cnx_update_bss_more
                0x0000000040262704                cnx_sta_leave
                0x00000000402627cc                cnx_sta_associated
                0x0000000040262828                cnx_node_alloc
                0x0000000040262888                cnx_node_remove
                0x00000000402628dc                cnx_node_search
                0x0000000040262940                cnx_node_leave
                0x00000000402629fc                cnx_node_join
 *fill*         0x0000000040262b7d        0x3 
 .irom0.text    0x0000000040262b80      0x161 C:/sviluppo/ESP8266/projects/ESPWebFramework/../../SDK/esp_iot_rtos_sdk-master/lib\libnet80211.a(ieee80211_action.o)
                                        0x181 (size before relaxing)
                0x0000000040262b90                ieee80211_send_action_register
                0x0000000040262bc4                ieee80211_send_action_unregister
                0x0000000040262bd8                ieee80211_send_action
                0x0000000040262c3c                ieee80211_recv_action_register
                0x0000000040262c70                ieee80211_recv_action_unregister
                0x0000000040262c84                ieee80211_recv_action
 *fill*         0x0000000040262ce1        0x3 
 .irom0.text    0x0000000040262ce4      0x27e C:/sviluppo/ESP8266/projects/ESPWebFramework/../../SDK/esp_iot_rtos_sdk-master/lib\libwpa.a(ap_config.o)
                                        0x2ba (size before relaxing)
                0x0000000040262ce8                hostapd_config_defaults_bss
                0x0000000040262d30                hostapd_config_defaults
                0x0000000040262d9c                hostapd_mac_comp
                0x0000000040262db4                hostapd_mac_comp_empty
                0x0000000040262e08                hostapd_setup_wpa_psk
                0x0000000040262e38                hostapd_wep_key_cmp
                0x0000000040262e88                hostapd_maclist_found
                0x0000000040262ef4                hostapd_rate_found
                0x0000000040262f10                hostapd_get_psk
 *fill*         0x0000000040262f62        0x2 
 .irom0.text    0x0000000040262f64      0x23c C:/sviluppo/ESP8266/projects/ESPWebFramework/../../SDK/esp_iot_rtos_sdk-master/lib\libwpa.a(common.o)
                                        0x28c (size before relaxing)
                0x0000000040262f64                inc_byte_array
                0x0000000040262fb8                hex2byte
                0x0000000040262fec                hexstr2bin
                0x0000000040263038                wpa_get_ntp_timestamp
                0x00000000402630c4                wpa_config_parse_string
 .irom0.text    0x00000000402631a0       0x5b C:/sviluppo/ESP8266/projects/ESPWebFramework/../../SDK/esp_iot_rtos_sdk-master/lib\libwpa.a(os_xtensa.o)
                                         0x63 (size before relaxing)
                0x00000000402631a0                os_get_time
                0x00000000402631a8                os_random
                0x00000000402631bc                os_get_random
 *fill*         0x00000000402631fb        0x1 
 .irom0.text    0x00000000402631fc      0x141 C:/sviluppo/ESP8266/projects/ESPWebFramework/../../SDK/esp_iot_rtos_sdk-master/lib\libwpa.a(sha1-pbkdf2.o)
                                        0x165 (size before relaxing)
                0x00000000402632d8                pbkdf2_sha1
 *fill*         0x000000004026333d        0x3 
 .irom0.text    0x0000000040263340     0x1c33 C:/sviluppo/ESP8266/projects/ESPWebFramework/../../SDK/esp_iot_rtos_sdk-master/lib\libwpa.a(wpa_auth.o)
                                       0x1f47 (size before relaxing)
                0x0000000040263474                wpa_auth_for_each_sta
                0x00000000402635d4                wpa_init
                0x0000000040263640                wpa_auth_sta_init
                0x0000000040263680                wpa_auth_sta_associated
                0x00000000402636f8                wpa_auth_sta_no_wpa
                0x0000000040263744                wpa_auth_sta_deinit
                0x0000000040263820                wpa_receive
                0x0000000040263c78                __wpa_send_eapol
                0x0000000040264134                wpa_remove_ptk
                0x000000004026417c                wpa_auth_sm_event
 *fill*         0x0000000040264f73        0x1 
 .irom0.text    0x0000000040264f74      0x565 C:/sviluppo/ESP8266/projects/ESPWebFramework/../../SDK/esp_iot_rtos_sdk-master/lib\libwpa.a(wpa_auth_ie.o)
                                        0x5d5 (size before relaxing)
                0x0000000040265038                wpa_write_rsn_ie
                0x0000000040265140                wpa_auth_gen_wpa_ie
                0x00000000402651c4                wpa_add_kde
                0x000000004026522c                wpa_validate_wpa_ie
                0x000000004026542c                wpa_parse_kde_ies
                0x00000000402654c8                wpa_auth_uses_mfp
 *fill*         0x00000000402654d9        0x3 
 .irom0.text    0x00000000402654dc     0x13cc C:/sviluppo/ESP8266/projects/ESPWebFramework/../../SDK/esp_iot_rtos_sdk-master/lib\libwpa.a(wpa.o)
                                       0x16c0 (size before relaxing)
                0x00000000402663a8                wpa_sm_rx_eapol
                0x000000004026650c                wpa_register
                0x0000000040266538                wpa_set_profile
                0x0000000040266548                wpa_set_pmk
                0x0000000040266574                wpa_set_bss
                0x0000000040266798                pp_michael_mic_failure
                0x000000004026682c                eapol_txcb
                0x0000000040266880                wpa_sm_set_state
 .irom0.text    0x00000000402668a8      0x76a C:/sviluppo/ESP8266/projects/ESPWebFramework/../../SDK/esp_iot_rtos_sdk-master/lib\libwpa.a(wpa_common.o)
                                        0x826 (size before relaxing)
                0x00000000402669f0                wpa_parse_wpa_ie_rsn
                0x0000000040266b84                wpa_parse_wpa_ie_wpa
                0x0000000040266d08                wpa_eapol_key_mic
                0x0000000040266d44                wpa_compare_rsn_ie
                0x0000000040266d88                wpa_cipher_txt
                0x0000000040266dc8                wpa_pmk_to_ptk
                0x0000000040266e98                rsn_pmkid
                0x0000000040266ec8                wpa_cipher_key_len
                0x0000000040266eec                wpa_cipher_to_alg
                0x0000000040266f14                wpa_cipher_to_suite
                0x0000000040266f68                rsn_cipher_put_suites
                0x0000000040266fc8                wpa_cipher_put_suites
 *fill*         0x0000000040267012        0x2 
 .irom0.text    0x0000000040267014      0x325 C:/sviluppo/ESP8266/projects/ESPWebFramework/../../SDK/esp_iot_rtos_sdk-master/lib\libwpa.a(wpa_ie.o)
                                        0x341 (size before relaxing)
                0x0000000040267014                wpa_parse_wpa_ie
                0x0000000040267108                wpa_supplicant_parse_ies
                0x0000000040267308                wpa_gen_wpa_ie
 *fill*         0x0000000040267339        0x3 
 .irom0.text    0x000000004026733c      0x2cf C:/sviluppo/ESP8266/projects/ESPWebFramework/../../SDK/esp_iot_rtos_sdk-master/lib\libwpa.a(wpa_main.o)
                                        0x387 (size before relaxing)
                0x000000004026733c                ppInstallKey
                0x0000000040267448                wpa_config_profile
                0x0000000040267480                wpa_config_bss
                0x00000000402674c0                wpa_config_assoc_ie
                0x00000000402674d4                dhcp_bind_check
                0x0000000040267504                eagle_auth_done
                0x00000000402675ac                wpa_neg_complete
                0x00000000402675d4                wpa_attach
 *fill*         0x000000004026760b        0x1 
 .irom0.text    0x000000004026760c       0xd6 C:/sviluppo/ESP8266/projects/ESPWebFramework/../../SDK/esp_iot_rtos_sdk-master/lib\libwpa.a(wpas_glue.o)
                                         0xe2 (size before relaxing)
                0x0000000040267680                wpa_sm_alloc_eapol
                0x00000000402676bc                wpa_sm_deauthenticate
                0x00000000402676d8                wpa_sm_mlme_setprotection
                0x00000000402676dc                wpa_sm_get_beacon_ie
                0x00000000402676e0                wpa_sm_disassociate
 *fill*         0x00000000402676e2        0x2 
 .irom0.text    0x00000000402676e4       0xdc C:/sviluppo/ESP8266/projects/ESPWebFramework/../../SDK/esp_iot_rtos_sdk-master/lib\libwpa.a(aes-unwrap.o)
                                        0x114 (size before relaxing)
                0x00000000402676e4                aes_unwrap
 .irom0.text    0x00000000402677c0       0xcb C:/sviluppo/ESP8266/projects/ESPWebFramework/../../SDK/esp_iot_rtos_sdk-master/lib\libwpa.a(aes-wrap.o)
                                        0x103 (size before relaxing)
                0x00000000402677c0                aes_wrap
 *fill*         0x000000004026788b        0x1 
 .irom0.text    0x000000004026788c      0x143 C:/sviluppo/ESP8266/projects/ESPWebFramework/../../SDK/esp_iot_rtos_sdk-master/lib\libwpa.a(md5.o)
                                        0x16b (size before relaxing)
                0x000000004026788c                hmac_md5_vector
                0x00000000402679b0                hmac_md5
 *fill*         0x00000000402679cf        0x1 
 .irom0.text    0x00000000402679d0      0x9a4 C:/sviluppo/ESP8266/projects/ESPWebFramework/../../SDK/esp_iot_rtos_sdk-master/lib\libwpa.a(md5-internal.o)
                                        0x9dc (size before relaxing)
                0x00000000402679d0                md5_vector
                0x0000000040267a34                MD5Init
                0x0000000040267a50                MD5Update
                0x0000000040267b0c                MD5Final
 .irom0.text    0x0000000040268374      0x20a C:/sviluppo/ESP8266/projects/ESPWebFramework/../../SDK/esp_iot_rtos_sdk-master/lib\libwpa.a(sha1.o)
                                        0x23a (size before relaxing)
                0x0000000040268374                hmac_sha1_vector
                0x000000004026849c                hmac_sha1
                0x00000000402684bc                sha1_prf
 *fill*         0x000000004026857e        0x2 
 .irom0.text    0x0000000040268580     0x14eb C:/sviluppo/ESP8266/projects/ESPWebFramework/../../SDK/esp_iot_rtos_sdk-master/lib\libwpa.a(sha1-internal.o)
                                       0x157b (size before relaxing)
                0x0000000040268580                sha1_vector
                0x00000000402685f0                SHA1Transform
                0x00000000402698d8                SHA1Init
                0x00000000402698fc                SHA1Update
                0x0000000040269998                SHA1Final
 *fill*         0x0000000040269a6b        0x1 
 .irom0.text    0x0000000040269a6c      0x52f C:/sviluppo/ESP8266/projects/ESPWebFramework/../../SDK/esp_iot_rtos_sdk-master/lib\libwpa.a(aes-internal-dec.o)
                                        0x53f (size before relaxing)
                0x0000000040269a74                rijndaelKeySetupDec
                0x0000000040269b48                aes_decrypt_init
                0x0000000040269f74                aes_decrypt
                0x0000000040269f84                aes_decrypt_deinit
 *fill*         0x0000000040269f9b        0x1 
 .irom0.text    0x0000000040269f9c      0x47d C:/sviluppo/ESP8266/projects/ESPWebFramework/../../SDK/esp_iot_rtos_sdk-master/lib\libwpa.a(aes-internal-enc.o)
                                        0x49d (size before relaxing)
                0x0000000040269f9c                rijndaelEncrypt
                0x000000004026a3b4                aes_encrypt_init
                0x000000004026a3e4                aes_encrypt
                0x000000004026a3f4                aes_encrypt_deinit
 *fill*         0x000000004026a419        0x3 
 .irom0.text    0x000000004026a41c      0x10a C:/sviluppo/ESP8266/projects/ESPWebFramework/../../SDK/esp_iot_rtos_sdk-master/lib\libwpa.a(aes-internal.o)
                                        0x116 (size before relaxing)
                0x000000004026a420                rijndaelKeySetupEnc
 *fill*         0x000000004026a526        0x2 
 .irom0.text    0x000000004026a528      0x2f3 C:/sviluppo/ESP8266/projects/ESPWebFramework/../../SDK/esp_iot_rtos_sdk-master/lib\libmain.a(libc.o)
                                        0x31b (size before relaxing)
                0x000000004026a52c                strtol
                0x000000004026a63c                strcat
                0x000000004026a65c                strncat
                0x000000004026a68c                strspn
                0x000000004026a6c4                strcspn
                0x000000004026a6fc                strtok_r
                0x000000004026a754                strtok
                0x000000004026a768                strrchr
                0x000000004026a794                strdup
                0x000000004026a7d0                strchr
                0x000000004026a7ec                srand
                0x000000004026a7f4                atoi
                0x000000004026a808                atol
 *fill*         0x000000004026a81b        0x1 
 .irom0.text    0x000000004026a81c       0xeb C:/sviluppo/ESP8266/projects/ESPWebFramework/../../SDK/esp_iot_rtos_sdk-master/lib\liblwip.a(ethernetif.o)
                                         0xfb (size before relaxing)
                0x000000004026a878                ethernetif_input
                0x000000004026a8e0                ethernetif_init
 *fill*         0x000000004026a907        0x1 
 .irom0.text    0x000000004026a908       0xfa c:/sviluppo/esp8266/sdk/xtensa-lx106-elf/bin/../lib/gcc/xtensa-lx106-elf/4.8.2/../../../../xtensa-lx106-elf/lib\libcirom.a(lib_a-strncpy.o)
                0x000000004026a940                strncpy
 *fill*         0x000000004026aa02        0x2 
 .irom0.text    0x000000004026aa04      0x131 C:/sviluppo/ESP8266/projects/ESPWebFramework/../../SDK/esp_iot_rtos_sdk-master/lib\libnet80211.a(ieee80211_crypto_ccmp.o)
                                        0x135 (size before relaxing)
 *fill*         0x000000004026ab35        0x3 
 .irom0.text    0x000000004026ab38      0x15b C:/sviluppo/ESP8266/projects/ESPWebFramework/../../SDK/esp_iot_rtos_sdk-master/lib\libnet80211.a(ieee80211_crypto_tkip.o)
                                        0x167 (size before relaxing)
 *fill*         0x000000004026ac93        0x1 
 .irom0.text    0x000000004026ac94       0x7c C:/sviluppo/ESP8266/projects/ESPWebFramework/../../SDK/esp_iot_rtos_sdk-master/lib\libnet80211.a(ieee80211_crypto_wep.o)
                                         0x80 (size before relaxing)
 *fill*         0x000000004026ad10        0x0 
 *fill*         0x000000004026ad10        0x0 
 *fill*         0x000000004026ad10        0x0 
 *fill*         0x000000004026ad10        0x0 
 *fill*         0x000000004026ad10        0x0 
 *fill*         0x000000004026ad10        0x0 
 .irom0.text    0x000000004026ad10       0x64 C:/sviluppo/ESP8266/projects/ESPWebFramework/../../SDK/esp_iot_rtos_sdk-master/lib\libfreertos.a(list.o)
                0x000000004026ad10                vListInitialise
                0x000000004026ad24                vListInitialiseItem
                0x000000004026ad2c                vListInsertEnd
                0x000000004026ad44                vListInsert
 *fill*         0x000000004026ad74        0x0 
 *fill*         0x000000004026ad74        0x0 
 *fill*         0x000000004026ad74        0x0 
 *fill*         0x000000004026ad74        0x0 
 *fill*         0x000000004026ad74        0x0 
 *fill*         0x000000004026ad74        0x0 
 *fill*         0x000000004026ad74        0x0 
 .irom0.text    0x000000004026ad74        0x2 C:/sviluppo/ESP8266/projects/ESPWebFramework/../../SDK/esp_iot_rtos_sdk-master/lib\liblwip.a(stats.o)
                0x000000004026ad74                stats_init
 *fill*         0x000000004026ad76        0x0 
 *fill*         0x000000004026ad76        0x0 
 *fill*         0x000000004026ad76        0x0 
 *fill*         0x000000004026ad76        0x0 
 *fill*         0x000000004026ad76        0x0 
 *fill*         0x000000004026ad76        0x0 
 *fill*         0x000000004026ad76        0x0 
 *fill*         0x000000004026ad76        0x0 
 *fill*         0x000000004026ad76        0x2 
 .irom0.text    0x000000004026ad78      0x2e2 C:/sviluppo/ESP8266/projects/ESPWebFramework/../../SDK/esp_iot_rtos_sdk-master/lib\liblwip.a(inet_chksum.o)
                0x000000004026ad78                lwip_standard_chksum
                0x000000004026ae9c                inet_chksum_pseudo
                0x000000004026af98                inet_chksum_pseudo_partial
                0x000000004026afd0                inet_chksum
                0x000000004026afe8                inet_chksum_pbuf
 *fill*         0x000000004026b05a        0x0 
 *fill*         0x000000004026b05a        0x0 
 *fill*         0x000000004026b05a        0x0 
 *fill*         0x000000004026b05a        0x0 
 *fill*         0x000000004026b05a        0x0 
 *fill*         0x000000004026b05a        0x2 
 .irom0.text    0x000000004026b05c       0x12 c:/sviluppo/esp8266/sdk/xtensa-lx106-elf/bin/../lib/gcc/xtensa-lx106-elf/4.8.2/../../../../xtensa-lx106-elf/lib\libcirom.a(lib_a-bzero.o)
                0x000000004026b05c                bzero
 *fill*         0x000000004026b06e        0x2 
 .irom0.text    0x000000004026b070       0x50 c:/sviluppo/esp8266/sdk/xtensa-lx106-elf/bin/../lib/gcc/xtensa-lx106-elf/4.8.2/../../../../xtensa-lx106-elf/lib\libcirom.a(lib_a-memcmp.o)
                0x000000004026b070                memcmp
 .irom0.text    0x000000004026b0c0      0x145 c:/sviluppo/esp8266/sdk/xtensa-lx106-elf/bin/../lib/gcc/xtensa-lx106-elf/4.8.2/../../../../xtensa-lx106-elf/lib\libcirom.a(lib_a-memcpy.o)
                0x000000004026b104                memcpy
 *fill*         0x000000004026b205        0x3 
 .irom0.text    0x000000004026b208       0x7c c:/sviluppo/esp8266/sdk/xtensa-lx106-elf/bin/../lib/gcc/xtensa-lx106-elf/4.8.2/../../../../xtensa-lx106-elf/lib\libcirom.a(lib_a-memset.o)
                0x000000004026b234                memset
 *fill*         0x000000004026b284        0x0 
 *fill*         0x000000004026b284        0x0 
 *fill*         0x000000004026b284        0x0 
 *fill*         0x000000004026b284        0x0 
 *fill*         0x000000004026b284        0x0 
 *fill*         0x000000004026b284        0x0 
 *fill*         0x000000004026b284        0x0 
 *fill*         0x000000004026b284        0x0 
 *fill*         0x000000004026b284        0x0 
 *fill*         0x000000004026b284        0x0 
 *fill*         0x000000004026b284        0x0 
 *fill*         0x000000004026b284        0x0 
 *fill*         0x000000004026b284        0x0 
 *fill*         0x000000004026b284        0x0 
 *fill*         0x000000004026b284        0x0 
 *fill*         0x000000004026b284        0x0 
 *fill*         0x000000004026b284        0x0 
 *fill*         0x000000004026b284        0x0 
 *fill*         0x000000004026b284        0x0 
 *fill*         0x000000004026b284        0x0 
 *fill*         0x000000004026b284        0x0 
 *fill*         0x000000004026b284        0x0 
 *fill*         0x000000004026b284        0x0 
 *fill*         0x000000004026b284        0x0 
 *fill*         0x000000004026b284        0x0 
 *fill*         0x000000004026b284        0x0 
 *fill*         0x000000004026b284        0x0 
 *fill*         0x000000004026b284        0x0 
 *fill*         0x000000004026b284        0x0 
 *fill*         0x000000004026b284        0x0 
 *fill*         0x000000004026b284        0x0 
 *fill*         0x000000004026b284        0x0 
 *fill*         0x000000004026b284        0x0 
 *fill*         0x000000004026b284        0x0 
 *fill*         0x000000004026b284        0x0 
 *fill*         0x000000004026b284        0x0 
 *fill*         0x000000004026b284        0x0 
 .irom0.text    0x000000004026b284        0x8 C:/sviluppo/ESP8266/projects/ESPWebFramework/../../SDK/esp_iot_rtos_sdk-master/lib\libwpa.a(wpa_debug.o)
                0x000000004026b284                eloop_cancel_timeout
                0x000000004026b288                eloop_register_timeout
 *fill*         0x000000004026b28c        0x0 
 *fill*         0x000000004026b28c        0x0 
 *fill*         0x000000004026b28c        0x0 
 *fill*         0x000000004026b28c        0x0 
 *fill*         0x000000004026b28c        0x0 
 .irom0.text    0x000000004026b28c       0xdb C:/sviluppo/ESP8266/projects/ESPWebFramework/../../SDK/esp_iot_rtos_sdk-master/lib\libwpa.a(rc4.o)
                0x000000004026b28c                rc4_skip
 *fill*         0x000000004026b367        0x0 
 *fill*         0x000000004026b367        0x0 
 *fill*         0x000000004026b367        0x0 
 *fill*         0x000000004026b367        0x0 
 *fill*         0x000000004026b367        0x0 
 *fill*         0x000000004026b367        0x0 
 *fill*         0x000000004026b367        0x0 
 *fill*         0x000000004026b367        0x0 
 *fill*         0x000000004026b367        0x0 
 *fill*         0x000000004026b367        0x0 
 *fill*         0x000000004026b367        0x0 
                0x000000004026b367                _irom0_text_end = ABSOLUTE (.)
                0x00000000400040c0                PROVIDE (SPI_sector_erase, 0x400040c0)
                0x0000000040004174                PROVIDE (SPI_page_program, 0x40004174)
                0x00000000400042ac                PROVIDE (SPI_read_data, 0x400042ac)
                0x00000000400043c8                PROVIDE (SPI_read_status, 0x400043c8)
                0x0000000040004400                PROVIDE (SPI_write_status, 0x40004400)
                0x000000004000443c                PROVIDE (SPI_write_enable, 0x4000443c)
                0x000000004000448c                PROVIDE (Wait_SPI_Idle, 0x4000448c)
                0x00000000400044c0                PROVIDE (Enable_QMode, 0x400044c0)
                0x0000000040004508                PROVIDE (Disable_QMode, 0x40004508)
                0x0000000040004678                PROVIDE (Cache_Read_Enable, 0x40004678)
                0x00000000400047f0                PROVIDE (Cache_Read_Disable, 0x400047f0)
                0x0000000040004f40                PROVIDE (lldesc_build_chain, 0x40004f40)
                0x0000000040005050                PROVIDE (lldesc_num2link, 0x40005050)
                0x000000004000507c                PROVIDE (lldesc_set_owner, 0x4000507c)
                0x000000004000c538                PROVIDE (__adddf3, 0x4000c538)
                0x000000004000c180                PROVIDE (__addsf3, 0x4000c180)
                0x000000004000cb94                PROVIDE (__divdf3, 0x4000cb94)
                0x000000004000ce60                PROVIDE (__divdi3, 0x4000ce60)
                0x000000004000dc88                PROVIDE (__divsi3, 0x4000dc88)
                0x000000004000cdfc                PROVIDE (__extendsfdf2, 0x4000cdfc)
                0x000000004000ccb8                PROVIDE (__fixdfsi, 0x4000ccb8)
                0x000000004000cd00                PROVIDE (__fixunsdfsi, 0x4000cd00)
                0x000000004000c4c4                PROVIDE (__fixunssfsi, 0x4000c4c4)
                0x000000004000e2f0                PROVIDE (__floatsidf, 0x4000e2f0)
                0x000000004000e2ac                PROVIDE (__floatsisf, 0x4000e2ac)
                0x000000004000e2e8                PROVIDE (__floatunsidf, 0x4000e2e8)
                0x000000004000e2a4                PROVIDE (__floatunsisf, 0x4000e2a4)
                0x000000004000c8f0                PROVIDE (__muldf3, 0x4000c8f0)
                0x0000000040000650                PROVIDE (__muldi3, 0x40000650)
                0x000000004000c3dc                PROVIDE (__mulsf3, 0x4000c3dc)
                0x000000004000c688                PROVIDE (__subdf3, 0x4000c688)
                0x000000004000c268                PROVIDE (__subsf3, 0x4000c268)
                0x000000004000cd5c                PROVIDE (__truncdfsf2, 0x4000cd5c)
                0x000000004000d310                PROVIDE (__udivdi3, 0x4000d310)
                0x000000004000e21c                PROVIDE (__udivsi3, 0x4000e21c)
                0x000000004000d770                PROVIDE (__umoddi3, 0x4000d770)
                0x000000004000e268                PROVIDE (__umodsi3, 0x4000e268)
                0x000000004000dcf0                PROVIDE (__umulsidi3, 0x4000dcf0)
                0x0000000040002ae8                PROVIDE (bzero, 0x40002ae8)
                0x00000000400018d4                PROVIDE (memcmp, 0x400018d4)
                0x00000000400018b4                PROVIDE (memcpy, 0x400018b4)
                0x00000000400018c4                PROVIDE (memmove, 0x400018c4)
                0x00000000400018a4                PROVIDE (memset, 0x400018a4)
                0x0000000040002aa8                PROVIDE (strcmp, 0x40002aa8)
                0x0000000040002a88                PROVIDE (strcpy, 0x40002a88)
                0x0000000040002ac8                PROVIDE (strlen, 0x40002ac8)
                0x0000000040002ab8                PROVIDE (strncmp, 0x40002ab8)
                0x0000000040002a98                PROVIDE (strncpy, 0x40002a98)
                0x0000000040002ad8                PROVIDE (strstr, 0x40002ad8)
                0x00000000400047f0                PROVIDE (Cache_Read_Disable, 0x400047f0)
                0x0000000040004678                PROVIDE (Cache_Read_Enable, 0x40004678)
                0x00000000400035a0                PROVIDE (FilePacketSendReqMsgProc, 0x400035a0)
                0x000000004000368c                PROVIDE (FlashDwnLdParamCfgMsgProc, 0x4000368c)
                0x0000000040003538                PROVIDE (FlashDwnLdStartMsgProc, 0x40003538)
                0x0000000040003658                PROVIDE (FlashDwnLdStopReqMsgProc, 0x40003658)
                0x0000000040003f4c                PROVIDE (GetUartDevice, 0x40003f4c)
                0x0000000040009900                PROVIDE (MD5Final, 0x40009900)
                0x0000000040009818                PROVIDE (MD5Init, 0x40009818)
                0x0000000040009834                PROVIDE (MD5Update, 0x40009834)
                0x00000000400036c4                PROVIDE (MemDwnLdStartMsgProc, 0x400036c4)
                0x000000004000377c                PROVIDE (MemDwnLdStopReqMsgProc, 0x4000377c)
                0x00000000400036f0                PROVIDE (MemPacketSendReqMsgProc, 0x400036f0)
                0x0000000040003eac                PROVIDE (RcvMsg, 0x40003eac)
                0x000000004000b648                PROVIDE (SHA1Final, 0x4000b648)
                0x000000004000b584                PROVIDE (SHA1Init, 0x4000b584)
                0x000000004000a364                PROVIDE (SHA1Transform, 0x4000a364)
                0x000000004000b5a8                PROVIDE (SHA1Update, 0x4000b5a8)
                0x00000000400043c8                PROVIDE (SPI_read_status, 0x400043c8)
                0x0000000040004400                PROVIDE (SPI_write_status, 0x40004400)
                0x000000004000448c                PROVIDE (Wait_SPI_Idle, 0x4000448c)
                0x0000000040004b44                PROVIDE (SPIEraseArea, 0x40004b44)
                0x00000000400049b4                PROVIDE (SPIEraseBlock, 0x400049b4)
                0x0000000040004984                PROVIDE (SPIEraseChip, 0x40004984)
                0x0000000040004a00                PROVIDE (SPIEraseSector, 0x40004a00)
                0x00000000400048a8                PROVIDE (SPILock, 0x400048a8)
                0x0000000040004c2c                PROVIDE (SPIParamCfg, 0x40004c2c)
                0x0000000040004b1c                PROVIDE (SPIRead, 0x40004b1c)
                0x00000000400048ec                PROVIDE (SPIReadModeCnfig, 0x400048ec)
                0x0000000040004878                PROVIDE (SPIUnlock, 0x40004878)
                0x0000000040004a4c                PROVIDE (SPIWrite, 0x40004a4c)
                0x0000000040003f58                PROVIDE (SelectSpiFunction, 0x40003f58)
                0x0000000040003cf4                PROVIDE (SendMsg, 0x40003cf4)
                0x0000000040003230                PROVIDE (UartConnCheck, 0x40003230)
                0x00000000400037a0                PROVIDE (UartConnectProc, 0x400037a0)
                0x0000000040003368                PROVIDE (UartDwnLdProc, 0x40003368)
                0x0000000040003ef4                PROVIDE (UartGetCmdLn, 0x40003ef4)
                0x000000004000381c                PROVIDE (UartRegReadProc, 0x4000381c)
                0x00000000400037ac                PROVIDE (UartRegWriteProc, 0x400037ac)
                0x0000000040003c30                PROVIDE (UartRxString, 0x40003c30)
                0x0000000040003a14                PROVIDE (Uart_Init, 0x40003a14)
                0x0000000040000010                PROVIDE (_DebugExceptionVector, 0x40000010)
                0x0000000040000070                PROVIDE (_DoubleExceptionVector, 0x40000070)
                0x0000000040000030                PROVIDE (_KernelExceptionVector, 0x40000030)
                0x0000000040000020                PROVIDE (_NMIExceptionVector, 0x40000020)
                0x00000000400000a4                PROVIDE (_ResetHandler, 0x400000a4)
                0x0000000040000080                PROVIDE (_ResetVector, 0x40000080)
                0x0000000040000050                PROVIDE (_UserExceptionVector, 0x40000050)
                0x000000004000c538                PROVIDE (__adddf3, 0x4000c538)
                0x000000004000c180                PROVIDE (__addsf3, 0x4000c180)
                0x000000004000cb94                PROVIDE (__divdf3, 0x4000cb94)
                0x000000004000ce60                PROVIDE (__divdi3, 0x4000ce60)
                0x000000004000dc88                PROVIDE (__divsi3, 0x4000dc88)
                0x000000004000cdfc                PROVIDE (__extendsfdf2, 0x4000cdfc)
                0x000000004000ccb8                PROVIDE (__fixdfsi, 0x4000ccb8)
                0x000000004000cd00                PROVIDE (__fixunsdfsi, 0x4000cd00)
                0x000000004000c4c4                PROVIDE (__fixunssfsi, 0x4000c4c4)
                0x000000004000e2f0                PROVIDE (__floatsidf, 0x4000e2f0)
                0x000000004000e2ac                PROVIDE (__floatsisf, 0x4000e2ac)
                0x000000004000e2e8                PROVIDE (__floatunsidf, 0x4000e2e8)
                0x000000004000e2a4                PROVIDE (__floatunsisf, 0x4000e2a4)
                0x000000004000c8f0                PROVIDE (__muldf3, 0x4000c8f0)
                0x0000000040000650                PROVIDE (__muldi3, 0x40000650)
                0x000000004000c3dc                PROVIDE (__mulsf3, 0x4000c3dc)
                0x000000004000c688                PROVIDE (__subdf3, 0x4000c688)
                0x000000004000c268                PROVIDE (__subsf3, 0x4000c268)
                0x000000004000cd5c                PROVIDE (__truncdfsf2, 0x4000cd5c)
                0x000000004000d310                PROVIDE (__udivdi3, 0x4000d310)
                0x000000004000e21c                PROVIDE (__udivsi3, 0x4000e21c)
                0x000000004000d770                PROVIDE (__umoddi3, 0x4000d770)
                0x000000004000e268                PROVIDE (__umodsi3, 0x4000e268)
                0x000000004000dcf0                PROVIDE (__umulsidi3, 0x4000dcf0)
                0x000000004000e388                PROVIDE (_rom_store, 0x4000e388)
                0x000000004000e328                PROVIDE (_rom_store_table, 0x4000e328)
                0x000000004000042c                PROVIDE (_start, 0x4000042c)
                0x000000004000dbe0                PROVIDE (_xtos_alloca_handler, 0x4000dbe0)
                0x0000000040000598                PROVIDE (_xtos_c_wrapper_handler, 0x40000598)
                0x0000000040000590                PROVIDE (_xtos_cause3_handler, 0x40000590)
                0x000000004000bda4                PROVIDE (_xtos_ints_off, 0x4000bda4)
                0x000000004000bd84                PROVIDE (_xtos_ints_on, 0x4000bd84)
                0x000000004000048c                PROVIDE (_xtos_l1int_handler, 0x4000048c)
                0x000000004000dbf8                PROVIDE (_xtos_p_none, 0x4000dbf8)
                0x000000004000056c                PROVIDE (_xtos_restore_intlevel, 0x4000056c)
                0x000000004000dc54                PROVIDE (_xtos_return_from_exc, 0x4000dc54)
                0x0000000040000454                PROVIDE (_xtos_set_exception_handler, 0x40000454)
                0x000000004000bd70                PROVIDE (_xtos_set_interrupt_handler, 0x4000bd70)
                0x000000004000bd28                PROVIDE (_xtos_set_interrupt_handler_arg, 0x4000bd28)
                0x000000004000dbfc                PROVIDE (_xtos_set_intlevel, 0x4000dbfc)
                0x000000004000dc18                PROVIDE (_xtos_set_min_intlevel, 0x4000dc18)
                0x0000000040000574                PROVIDE (_xtos_set_vpri, 0x40000574)
                0x000000004000dbe4                PROVIDE (_xtos_syscall_handler, 0x4000dbe4)
                0x000000004000dc44                PROVIDE (_xtos_unhandled_exception, 0x4000dc44)
                0x000000004000dc3c                PROVIDE (_xtos_unhandled_interrupt, 0x4000dc3c)
                0x00000000400092d4                PROVIDE (aes_decrypt, 0x400092d4)
                0x00000000400092e4                PROVIDE (aes_decrypt_deinit, 0x400092e4)
                0x0000000040008ea4                PROVIDE (aes_decrypt_init, 0x40008ea4)
                0x0000000040009410                PROVIDE (aes_unwrap, 0x40009410)
                0x0000000040009648                PROVIDE (base64_decode, 0x40009648)
                0x00000000400094fc                PROVIDE (base64_encode, 0x400094fc)
                0x000000004000de84                PROVIDE (bzero, 0x4000de84)
                0x0000000040000814                PROVIDE (cmd_parse, 0x40000814)
                0x0000000040000b24                PROVIDE (conv_str_decimal, 0x40000b24)
                0x0000000040000cb8                PROVIDE (conv_str_hex, 0x40000cb8)
                0x0000000040000a60                PROVIDE (convert_para_str, 0x40000a60)
                0x00000000400026d0                PROVIDE (dtm_get_intr_mask, 0x400026d0)
                0x000000004000269c                PROVIDE (dtm_params_init, 0x4000269c)
                0x00000000400026c8                PROVIDE (dtm_set_intr_mask, 0x400026c8)
                0x00000000400026dc                PROVIDE (dtm_set_params, 0x400026dc)
                0x0000000040001d14                PROVIDE (eprintf, 0x40001d14)
                0x0000000040001cb8                PROVIDE (eprintf_init_buf, 0x40001cb8)
                0x0000000040001d48                PROVIDE (eprintf_to_host, 0x40001d48)
                0x0000000040002494                PROVIDE (est_get_printf_buf_remain_len, 0x40002494)
                0x000000004000249c                PROVIDE (est_reset_printf_buf_len, 0x4000249c)
                0x0000000040002ae8                PROVIDE (ets_bzero, 0x40002ae8)
                0x0000000040002b74                PROVIDE (ets_char2xdigit, 0x40002b74)
                0x0000000040002ecc                PROVIDE (ets_delay_us, 0x40002ecc)
                0x00000000400027b8                PROVIDE (ets_enter_sleep, 0x400027b8)
                0x0000000040002578                PROVIDE (ets_external_printf, 0x40002578)
                0x0000000040002f0c                PROVIDE (ets_get_cpu_frequency, 0x40002f0c)
                0x0000000040002bcc                PROVIDE (ets_getc, 0x40002bcc)
                0x0000000040002450                PROVIDE (ets_install_external_printf, 0x40002450)
                0x000000004000242c                PROVIDE (ets_install_putc1, 0x4000242c)
                0x000000004000248c                PROVIDE (ets_install_putc2, 0x4000248c)
                0x0000000040002438                PROVIDE (ets_install_uart_printf, 0x40002438)
                0x0000000040000f74                PROVIDE (ets_intr_lock, 0x40000f74)
                0x0000000040000f80                PROVIDE (ets_intr_unlock, 0x40000f80)
                0x0000000040000f88                PROVIDE (ets_isr_attach, 0x40000f88)
                0x0000000040000f98                PROVIDE (ets_isr_mask, 0x40000f98)
                0x0000000040000fa8                PROVIDE (ets_isr_unmask, 0x40000fa8)
                0x00000000400018d4                PROVIDE (ets_memcmp, 0x400018d4)
                0x00000000400018b4                PROVIDE (ets_memcpy, 0x400018b4)
                0x00000000400018c4                PROVIDE (ets_memmove, 0x400018c4)
                0x00000000400018a4                PROVIDE (ets_memset, 0x400018a4)
                0x0000000040000e24                PROVIDE (ets_post, 0x40000e24)
                0x00000000400024cc                PROVIDE (ets_printf, 0x400024cc)
                0x0000000040002be8                PROVIDE (ets_putc, 0x40002be8)
                0x0000000040002a40                PROVIDE (ets_rtc_int_register, 0x40002a40)
                0x0000000040000e04                PROVIDE (ets_run, 0x40000e04)
                0x0000000040000dc0                PROVIDE (ets_set_idle_cb, 0x40000dc0)
                0x0000000040000fbc                PROVIDE (ets_set_user_start, 0x40000fbc)
                0x0000000040002af8                PROVIDE (ets_str2macaddr, 0x40002af8)
                0x0000000040002aa8                PROVIDE (ets_strcmp, 0x40002aa8)
                0x0000000040002a88                PROVIDE (ets_strcpy, 0x40002a88)
                0x0000000040002ac8                PROVIDE (ets_strlen, 0x40002ac8)
                0x0000000040002ab8                PROVIDE (ets_strncmp, 0x40002ab8)
                0x0000000040002a98                PROVIDE (ets_strncpy, 0x40002a98)
                0x0000000040002ad8                PROVIDE (ets_strstr, 0x40002ad8)
                0x0000000040000dd0                PROVIDE (ets_task, 0x40000dd0)
                0x0000000040002cc4                PROVIDE (ets_timer_arm, 0x40002cc4)
                0x0000000040002d40                PROVIDE (ets_timer_disarm, 0x40002d40)
                0x0000000040002d80                PROVIDE (ets_timer_done, 0x40002d80)
                0x0000000040002da8                PROVIDE (ets_timer_handler_isr, 0x40002da8)
                0x0000000040002e68                PROVIDE (ets_timer_init, 0x40002e68)
                0x0000000040002c48                PROVIDE (ets_timer_setfn, 0x40002c48)
                0x0000000040002544                PROVIDE (ets_uart_printf, 0x40002544)
                0x0000000040002f04                PROVIDE (ets_update_cpu_frequency, 0x40002f04)
                0x0000000040001f00                PROVIDE (ets_vprintf, 0x40001f00)
                0x00000000400030f0                PROVIDE (ets_wdt_disable, 0x400030f0)
                0x0000000040002fa0                PROVIDE (ets_wdt_enable, 0x40002fa0)
                0x0000000040002f34                PROVIDE (ets_wdt_get_mode, 0x40002f34)
                0x0000000040003170                PROVIDE (ets_wdt_init, 0x40003170)
                0x0000000040003158                PROVIDE (ets_wdt_restore, 0x40003158)
                0x0000000040001da0                PROVIDE (ets_write_char, 0x40001da0)
                0x000000004000091c                PROVIDE (get_first_seg, 0x4000091c)
                0x0000000040004c50                PROVIDE (gpio_init, 0x40004c50)
                0x0000000040004cf0                PROVIDE (gpio_input_get, 0x40004cf0)
                0x0000000040004dcc                PROVIDE (gpio_intr_ack, 0x40004dcc)
                0x0000000040004e28                PROVIDE (gpio_intr_handler_register, 0x40004e28)
                0x0000000040004d88                PROVIDE (gpio_intr_pending, 0x40004d88)
                0x0000000040004efc                PROVIDE (gpio_intr_test, 0x40004efc)
                0x0000000040004cd0                PROVIDE (gpio_output_set, 0x40004cd0)
                0x0000000040004d90                PROVIDE (gpio_pin_intr_state_set, 0x40004d90)
                0x0000000040004ed4                PROVIDE (gpio_pin_wakeup_disable, 0x40004ed4)
                0x0000000040004e90                PROVIDE (gpio_pin_wakeup_enable, 0x40004e90)
                0x0000000040004d5c                PROVIDE (gpio_register_get, 0x40004d5c)
                0x0000000040004d04                PROVIDE (gpio_register_set, 0x40004d04)
                0x000000004000a2cc                PROVIDE (hmac_md5, 0x4000a2cc)
                0x000000004000a160                PROVIDE (hmac_md5_vector, 0x4000a160)
                0x000000004000ba28                PROVIDE (hmac_sha1, 0x4000ba28)
                0x000000004000b8b4                PROVIDE (hmac_sha1_vector, 0x4000b8b4)
                0x0000000040004f40                PROVIDE (lldesc_build_chain, 0x40004f40)
                0x0000000040005050                PROVIDE (lldesc_num2link, 0x40005050)
                0x000000004000507c                PROVIDE (lldesc_set_owner, 0x4000507c)
                0x0000000040000fec                PROVIDE (main, 0x40000fec)
                0x00000000400097ac                PROVIDE (md5_vector, 0x400097ac)
                0x0000000040001c2c                PROVIDE (mem_calloc, 0x40001c2c)
                0x00000000400019e0                PROVIDE (mem_free, 0x400019e0)
                0x0000000040001998                PROVIDE (mem_init, 0x40001998)
                0x0000000040001b40                PROVIDE (mem_malloc, 0x40001b40)
                0x0000000040001c6c                PROVIDE (mem_realloc, 0x40001c6c)
                0x0000000040001a14                PROVIDE (mem_trim, 0x40001a14)
                0x0000000040001c58                PROVIDE (mem_zalloc, 0x40001c58)
                0x000000004000dea8                PROVIDE (memcmp, 0x4000dea8)
                0x000000004000df48                PROVIDE (memcpy, 0x4000df48)
                0x000000004000e04c                PROVIDE (memmove, 0x4000e04c)
                0x000000004000e190                PROVIDE (memset, 0x4000e190)
                0x00000000400031c0                PROVIDE (multofup, 0x400031c0)
                0x000000004000b840                PROVIDE (pbkdf2_sha1, 0x4000b840)
                0x0000000040006b08                PROVIDE (phy_get_romfuncs, 0x40006b08)
                0x0000000040000600                PROVIDE (rand, 0x40000600)
                0x000000004000dd68                PROVIDE (rc4_skip, 0x4000dd68)
                0x0000000040003d08                PROVIDE (recv_packet, 0x40003d08)
                0x0000000040000a04                PROVIDE (remove_head_space, 0x40000a04)
                0x0000000040008dd0                PROVIDE (rijndaelKeySetupDec, 0x40008dd0)
                0x0000000040009300                PROVIDE (rijndaelKeySetupEnc, 0x40009300)
                0x00000000400060c0                PROVIDE (rom_abs_temp, 0x400060c0)
                0x0000000040006b10                PROVIDE (rom_ana_inf_gating_en, 0x40006b10)
                0x0000000040007a28                PROVIDE (rom_cal_tos_v50, 0x40007a28)
                0x0000000040006f84                PROVIDE (rom_chip_50_set_channel, 0x40006f84)
                0x00000000400060d0                PROVIDE (rom_chip_v5_disable_cca, 0x400060d0)
                0x00000000400060ec                PROVIDE (rom_chip_v5_enable_cca, 0x400060ec)
                0x000000004000711c                PROVIDE (rom_chip_v5_rx_init, 0x4000711c)
                0x000000004000610c                PROVIDE (rom_chip_v5_sense_backoff, 0x4000610c)
                0x000000004000718c                PROVIDE (rom_chip_v5_tx_init, 0x4000718c)
                0x000000004000615c                PROVIDE (rom_dc_iq_est, 0x4000615c)
                0x00000000400061b8                PROVIDE (rom_en_pwdet, 0x400061b8)
                0x0000000040006238                PROVIDE (rom_get_bb_atten, 0x40006238)
                0x0000000040006260                PROVIDE (rom_get_corr_power, 0x40006260)
                0x00000000400062dc                PROVIDE (rom_get_fm_sar_dout, 0x400062dc)
                0x0000000040006394                PROVIDE (rom_get_noisefloor, 0x40006394)
                0x00000000400063b0                PROVIDE (rom_get_power_db, 0x400063b0)
                0x0000000040007268                PROVIDE (rom_i2c_readReg, 0x40007268)
                0x000000004000729c                PROVIDE (rom_i2c_readReg_Mask, 0x4000729c)
                0x00000000400072d8                PROVIDE (rom_i2c_writeReg, 0x400072d8)
                0x000000004000730c                PROVIDE (rom_i2c_writeReg_Mask, 0x4000730c)
                0x0000000040006400                PROVIDE (rom_iq_est_disable, 0x40006400)
                0x0000000040006430                PROVIDE (rom_iq_est_enable, 0x40006430)
                0x0000000040006484                PROVIDE (rom_linear_to_db, 0x40006484)
                0x00000000400065a4                PROVIDE (rom_mhz2ieee, 0x400065a4)
                0x0000000040007bf0                PROVIDE (rom_pbus_dco___SA2, 0x40007bf0)
                0x000000004000737c                PROVIDE (rom_pbus_debugmode, 0x4000737c)
                0x0000000040007410                PROVIDE (rom_pbus_enter_debugmode, 0x40007410)
                0x0000000040007448                PROVIDE (rom_pbus_exit_debugmode, 0x40007448)
                0x000000004000747c                PROVIDE (rom_pbus_force_test, 0x4000747c)
                0x00000000400074d8                PROVIDE (rom_pbus_rd, 0x400074d8)
                0x000000004000754c                PROVIDE (rom_pbus_set_rxgain, 0x4000754c)
                0x0000000040007610                PROVIDE (rom_pbus_set_txgain, 0x40007610)
                0x0000000040007648                PROVIDE (rom_pbus_workmode, 0x40007648)
                0x0000000040007688                PROVIDE (rom_pbus_xpd_rx_off, 0x40007688)
                0x00000000400076cc                PROVIDE (rom_pbus_xpd_rx_on, 0x400076cc)
                0x00000000400076fc                PROVIDE (rom_pbus_xpd_tx_off, 0x400076fc)
                0x0000000040007740                PROVIDE (rom_pbus_xpd_tx_on, 0x40007740)
                0x00000000400077a0                PROVIDE (rom_pbus_xpd_tx_on__low_gain, 0x400077a0)
                0x0000000040007804                PROVIDE (rom_phy_reset_req, 0x40007804)
                0x000000004000781c                PROVIDE (rom_restart_cal, 0x4000781c)
                0x0000000040007eb4                PROVIDE (rom_rfcal_pwrctrl, 0x40007eb4)
                0x000000004000804c                PROVIDE (rom_rfcal_rxiq, 0x4000804c)
                0x0000000040008264                PROVIDE (rom_rfcal_rxiq_set_reg, 0x40008264)
                0x0000000040008388                PROVIDE (rom_rfcal_txcap, 0x40008388)
                0x0000000040008610                PROVIDE (rom_rfcal_txiq, 0x40008610)
                0x00000000400088b8                PROVIDE (rom_rfcal_txiq_cover, 0x400088b8)
                0x0000000040008a70                PROVIDE (rom_rfcal_txiq_set_reg, 0x40008a70)
                0x0000000040007868                PROVIDE (rom_rfpll_reset, 0x40007868)
                0x0000000040007968                PROVIDE (rom_rfpll_set_freq, 0x40007968)
                0x0000000040008b6c                PROVIDE (rom_rxiq_cover_mg_mp, 0x40008b6c)
                0x0000000040006628                PROVIDE (rom_rxiq_get_mis, 0x40006628)
                0x0000000040006738                PROVIDE (rom_sar_init, 0x40006738)
                0x000000004000678c                PROVIDE (rom_set_ana_inf_tx_scale, 0x4000678c)
                0x0000000040006c50                PROVIDE (rom_set_channel_freq, 0x40006c50)
                0x00000000400067c8                PROVIDE (rom_set_loopback_gain, 0x400067c8)
                0x0000000040006830                PROVIDE (rom_set_noise_floor, 0x40006830)
                0x0000000040006550                PROVIDE (rom_set_rxclk_en, 0x40006550)
                0x0000000040008c6c                PROVIDE (rom_set_txbb_atten, 0x40008c6c)
                0x000000004000650c                PROVIDE (rom_set_txclk_en, 0x4000650c)
                0x0000000040008d34                PROVIDE (rom_set_txiq_cal, 0x40008d34)
                0x0000000040006874                PROVIDE (rom_start_noisefloor, 0x40006874)
                0x00000000400068b4                PROVIDE (rom_start_tx_tone, 0x400068b4)
                0x000000004000698c                PROVIDE (rom_stop_tx_tone, 0x4000698c)
                0x0000000040006a98                PROVIDE (rom_tx_mac_disable, 0x40006a98)
                0x0000000040006ad4                PROVIDE (rom_tx_mac_enable, 0x40006ad4)
                0x0000000040006a1c                PROVIDE (rom_txtone_linear_pwr, 0x40006a1c)
                0x00000000400078dc                PROVIDE (rom_write_rfpll_sdm, 0x400078dc)
                0x00000000400031b4                PROVIDE (roundup2, 0x400031b4)
                0x0000000040002870                PROVIDE (rtc_enter_sleep, 0x40002870)
                0x00000000400025e0                PROVIDE (rtc_get_reset_reason, 0x400025e0)
                0x00000000400029ec                PROVIDE (rtc_intr_handler, 0x400029ec)
                0x0000000040002668                PROVIDE (rtc_set_sleep_mode, 0x40002668)
                0x00000000400027a4                PROVIDE (save_rxbcn_mactime, 0x400027a4)
                0x00000000400027ac                PROVIDE (save_tsf_us, 0x400027ac)
                0x0000000040003c80                PROVIDE (send_packet, 0x40003c80)
                0x000000004000ba48                PROVIDE (sha1_prf, 0x4000ba48)
                0x000000004000a2ec                PROVIDE (sha1_vector, 0x4000a2ec)
                0x0000000040005180                PROVIDE (sip_alloc_to_host_evt, 0x40005180)
                0x00000000400058a8                PROVIDE (sip_get_ptr, 0x400058a8)
                0x0000000040005668                PROVIDE (sip_get_state, 0x40005668)
                0x000000004000567c                PROVIDE (sip_init_attach, 0x4000567c)
                0x000000004000544c                PROVIDE (sip_install_rx_ctrl_cb, 0x4000544c)
                0x000000004000545c                PROVIDE (sip_install_rx_data_cb, 0x4000545c)
                0x00000000400050fc                PROVIDE (sip_post, 0x400050fc)
                0x00000000400056c4                PROVIDE (sip_post_init, 0x400056c4)
                0x000000004000534c                PROVIDE (sip_reclaim_from_host_cmd, 0x4000534c)
                0x00000000400052c0                PROVIDE (sip_reclaim_tx_data_pkt, 0x400052c0)
                0x0000000040005808                PROVIDE (sip_send, 0x40005808)
                0x0000000040005864                PROVIDE (sip_to_host_chain_append, 0x40005864)
                0x0000000040005234                PROVIDE (sip_to_host_evt_send_done, 0x40005234)
                0x00000000400060ac                PROVIDE (slc_add_credits, 0x400060ac)
                0x0000000040005d90                PROVIDE (slc_enable, 0x40005d90)
                0x0000000040005f24                PROVIDE (slc_from_host_chain_fetch, 0x40005f24)
                0x0000000040005e94                PROVIDE (slc_from_host_chain_recycle, 0x40005e94)
                0x0000000040005c50                PROVIDE (slc_init_attach, 0x40005c50)
                0x000000004000608c                PROVIDE (slc_init_credit, 0x4000608c)
                0x0000000040006014                PROVIDE (slc_pause_from_host, 0x40006014)
                0x0000000040005c1c                PROVIDE (slc_reattach, 0x40005c1c)
                0x000000004000603c                PROVIDE (slc_resume_from_host, 0x4000603c)
                0x0000000040005dc0                PROVIDE (slc_select_tohost_gpio, 0x40005dc0)
                0x0000000040005db8                PROVIDE (slc_select_tohost_gpio_mode, 0x40005db8)
                0x0000000040005de4                PROVIDE (slc_send_to_host_chain, 0x40005de4)
                0x0000000040006068                PROVIDE (slc_set_host_io_max_window, 0x40006068)
                0x0000000040005f10                PROVIDE (slc_to_host_chain_recycle, 0x40005f10)
                0x000000004000264c                PROVIDE (software_reset, 0x4000264c)
                0x0000000040004644                PROVIDE (spi_flash_attach, 0x40004644)
                0x00000000400005f0                PROVIDE (srand, 0x400005f0)
                0x000000004000bdc8                PROVIDE (strcmp, 0x4000bdc8)
                0x000000004000bec8                PROVIDE (strcpy, 0x4000bec8)
                0x000000004000bf4c                PROVIDE (strlen, 0x4000bf4c)
                0x000000004000bfa8                PROVIDE (strncmp, 0x4000bfa8)
                0x000000004000c0a0                PROVIDE (strncpy, 0x4000c0a0)
                0x000000004000e1e0                PROVIDE (strstr, 0x4000e1e0)
                0x0000000040002c64                PROVIDE (timer_insert, 0x40002c64)
                0x000000004000383c                PROVIDE (uartAttach, 0x4000383c)
                0x0000000040003924                PROVIDE (uart_baudrate_detect, 0x40003924)
                0x00000000400038a4                PROVIDE (uart_buff_switch, 0x400038a4)
                0x00000000400039d8                PROVIDE (uart_div_modify, 0x400039d8)
                0x0000000040003bbc                PROVIDE (uart_rx_intr_handler, 0x40003bbc)
                0x0000000040003b8c                PROVIDE (uart_rx_one_char, 0x40003b8c)
                0x0000000040003b64                PROVIDE (uart_rx_one_char_block, 0x40003b64)
                0x0000000040003ec8                PROVIDE (uart_rx_readbuff, 0x40003ec8)
                0x0000000040003b30                PROVIDE (uart_tx_one_char, 0x40003b30)
                0x000000004000bc40                PROVIDE (wepkey_128, 0x4000bc40)
                0x000000004000bb3c                PROVIDE (wepkey_64, 0x4000bb3c)
                0x0000000040000688                PROVIDE (xthal_bcopy, 0x40000688)
                0x000000004000074c                PROVIDE (xthal_copy123, 0x4000074c)
                0x000000004000dd4c                PROVIDE (xthal_get_ccompare, 0x4000dd4c)
                0x000000004000dd38                PROVIDE (xthal_get_ccount, 0x4000dd38)
                0x000000004000dd58                PROVIDE (xthal_get_interrupt, 0x4000dd58)
                0x000000004000dd58                PROVIDE (xthal_get_intread, 0x4000dd58)
                0x00000000400006c4                PROVIDE (xthal_memcpy, 0x400006c4)
                0x000000004000dd40                PROVIDE (xthal_set_ccompare, 0x4000dd40)
                0x000000004000dd60                PROVIDE (xthal_set_intclear, 0x4000dd60)
                0x000000004000e320                PROVIDE (xthal_spill_registers_into_stack_nw, 0x4000e320)
                0x000000004000e324                PROVIDE (xthal_window_spill, 0x4000e324)
                0x000000004000e320                PROVIDE (xthal_window_spill_nw, 0x4000e320)
                0x000000003fffccf0                PROVIDE (Te0, 0x3fffccf0)
                0x000000003fffde10                PROVIDE (UartDev, 0x3fffde10)
                0x000000003fffc714                PROVIDE (flashchip, 0x3fffc714)
OUTPUT(app.out elf32-xtensa-le)

.xtensa.info    0x0000000000000000       0x38
 .xtensa.info   0x0000000000000000       0x38 C:/sviluppo/ESP8266/projects/ESPWebFramework/../../SDK/esp_iot_rtos_sdk-master/lib\libmain.a(xtensa_vectors.o)
 .xtensa.info   0x0000000000000000        0x0 C:/sviluppo/ESP8266/projects/ESPWebFramework/../../SDK/esp_iot_rtos_sdk-master/lib\libmain.a(app_main.o)
 .xtensa.info   0x0000000000000000        0x0 C:/sviluppo/ESP8266/projects/ESPWebFramework/../../SDK/esp_iot_rtos_sdk-master/lib\libmain.a(misc.o)
 .xtensa.info   0x0000000000000000        0x0 C:/sviluppo/ESP8266/projects/ESPWebFramework/../../SDK/esp_iot_rtos_sdk-master/lib\libmain.a(printf-stdarg.o)
 .xtensa.info   0x0000000000000000        0x0 C:/sviluppo/ESP8266/projects/ESPWebFramework/../../SDK/esp_iot_rtos_sdk-master/lib\libmain.a(spi_flash.o)
 .xtensa.info   0x0000000000000000        0x0 C:/sviluppo/ESP8266/projects/ESPWebFramework/../../SDK/esp_iot_rtos_sdk-master/lib\libmain.a(uart.o)
 .xtensa.info   0x0000000000000000        0x0 C:/sviluppo/ESP8266/projects/ESPWebFramework/../../SDK/esp_iot_rtos_sdk-master/lib\libmain.a(user_interface.o)
 .xtensa.info   0x0000000000000000        0x0 C:/sviluppo/ESP8266/projects/ESPWebFramework/../../SDK/esp_iot_rtos_sdk-master/lib\libmain.a(os_cpu_a.o)
 .xtensa.info   0x0000000000000000        0x0 C:/sviluppo/ESP8266/projects/ESPWebFramework/../../SDK/esp_iot_rtos_sdk-master/lib\libmain.a(xtensa_context.o)
 .xtensa.info   0x0000000000000000        0x0 C:/sviluppo/ESP8266/projects/ESPWebFramework/../../SDK/esp_iot_rtos_sdk-master/lib\libmain.a(timers.o)
 .xtensa.info   0x0000000000000000        0x0 C:/sviluppo/ESP8266/projects/ESPWebFramework/../../SDK/esp_iot_rtos_sdk-master/lib\libfreertos.a(heap_4.o)
 .xtensa.info   0x0000000000000000        0x0 C:/sviluppo/ESP8266/projects/ESPWebFramework/../../SDK/esp_iot_rtos_sdk-master/lib\libfreertos.a(port.o)
 .xtensa.info   0x0000000000000000        0x0 C:/sviluppo/ESP8266/projects/ESPWebFramework/../../SDK/esp_iot_rtos_sdk-master/lib\libfreertos.a(queue.o)
 .xtensa.info   0x0000000000000000        0x0 C:/sviluppo/ESP8266/projects/ESPWebFramework/../../SDK/esp_iot_rtos_sdk-master/lib\libfreertos.a(tasks.o)
 .xtensa.info   0x0000000000000000        0x0 C:/sviluppo/ESP8266/projects/ESPWebFramework/../../SDK/esp_iot_rtos_sdk-master/lib\libfreertos.a(timers.o)
 .xtensa.info   0x0000000000000000        0x0 C:/sviluppo/ESP8266/projects/ESPWebFramework/../../SDK/esp_iot_rtos_sdk-master/lib\libfreertos.a(list.o)
 .xtensa.info   0x0000000000000000        0x0 C:/sviluppo/ESP8266/projects/ESPWebFramework/../../SDK/esp_iot_rtos_sdk-master/lib\liblwip.a(dhcp.o)
 .xtensa.info   0x0000000000000000        0x0 C:/sviluppo/ESP8266/projects/ESPWebFramework/../../SDK/esp_iot_rtos_sdk-master/lib\liblwip.a(dns.o)
 .xtensa.info   0x0000000000000000        0x0 C:/sviluppo/ESP8266/projects/ESPWebFramework/../../SDK/esp_iot_rtos_sdk-master/lib\liblwip.a(etharp.o)
 .xtensa.info   0x0000000000000000        0x0 C:/sviluppo/ESP8266/projects/ESPWebFramework/../../SDK/esp_iot_rtos_sdk-master/lib\liblwip.a(ip4_addr.o)
 .xtensa.info   0x0000000000000000        0x0 C:/sviluppo/ESP8266/projects/ESPWebFramework/../../SDK/esp_iot_rtos_sdk-master/lib\liblwip.a(ip4.o)
 .xtensa.info   0x0000000000000000        0x0 C:/sviluppo/ESP8266/projects/ESPWebFramework/../../SDK/esp_iot_rtos_sdk-master/lib\liblwip.a(ip_frag.o)
 .xtensa.info   0x0000000000000000        0x0 C:/sviluppo/ESP8266/projects/ESPWebFramework/../../SDK/esp_iot_rtos_sdk-master/lib\liblwip.a(memp.o)
 .xtensa.info   0x0000000000000000        0x0 C:/sviluppo/ESP8266/projects/ESPWebFramework/../../SDK/esp_iot_rtos_sdk-master/lib\liblwip.a(netif.o)
 .xtensa.info   0x0000000000000000        0x0 C:/sviluppo/ESP8266/projects/ESPWebFramework/../../SDK/esp_iot_rtos_sdk-master/lib\liblwip.a(pbuf.o)
 .xtensa.info   0x0000000000000000        0x0 C:/sviluppo/ESP8266/projects/ESPWebFramework/../../SDK/esp_iot_rtos_sdk-master/lib\liblwip.a(raw.o)
 .xtensa.info   0x0000000000000000        0x0 C:/sviluppo/ESP8266/projects/ESPWebFramework/../../SDK/esp_iot_rtos_sdk-master/lib\liblwip.a(stats.o)
 .xtensa.info   0x0000000000000000        0x0 C:/sviluppo/ESP8266/projects/ESPWebFramework/../../SDK/esp_iot_rtos_sdk-master/lib\liblwip.a(sys_arch.o)
 .xtensa.info   0x0000000000000000        0x0 C:/sviluppo/ESP8266/projects/ESPWebFramework/../../SDK/esp_iot_rtos_sdk-master/lib\liblwip.a(tcp_in.o)
 .xtensa.info   0x0000000000000000        0x0 C:/sviluppo/ESP8266/projects/ESPWebFramework/../../SDK/esp_iot_rtos_sdk-master/lib\liblwip.a(tcpip.o)
 .xtensa.info   0x0000000000000000        0x0 C:/sviluppo/ESP8266/projects/ESPWebFramework/../../SDK/esp_iot_rtos_sdk-master/lib\liblwip.a(tcp.o)
 .xtensa.info   0x0000000000000000        0x0 C:/sviluppo/ESP8266/projects/ESPWebFramework/../../SDK/esp_iot_rtos_sdk-master/lib\liblwip.a(tcp_out.o)
 .xtensa.info   0x0000000000000000        0x0 C:/sviluppo/ESP8266/projects/ESPWebFramework/../../SDK/esp_iot_rtos_sdk-master/lib\liblwip.a(timers.o)
 .xtensa.info   0x0000000000000000        0x0 C:/sviluppo/ESP8266/projects/ESPWebFramework/../../SDK/esp_iot_rtos_sdk-master/lib\liblwip.a(udp.o)
 .xtensa.info   0x0000000000000000        0x0 C:/sviluppo/ESP8266/projects/ESPWebFramework/../../SDK/esp_iot_rtos_sdk-master/lib\liblwip.a(icmp.o)
 .xtensa.info   0x0000000000000000        0x0 C:/sviluppo/ESP8266/projects/ESPWebFramework/../../SDK/esp_iot_rtos_sdk-master/lib\liblwip.a(inet_chksum.o)
 .xtensa.info   0x0000000000000000        0x0 C:/sviluppo/ESP8266/projects/ESPWebFramework/../../SDK/esp_iot_rtos_sdk-master/lib\liblwip.a(init.o)
 .xtensa.info   0x0000000000000000        0x0 C:/sviluppo/ESP8266/projects/ESPWebFramework/../../SDK/esp_iot_rtos_sdk-master/lib\liblwip.a(sockets.o)
 .xtensa.info   0x0000000000000000        0x0 C:/sviluppo/ESP8266/projects/ESPWebFramework/../../SDK/esp_iot_rtos_sdk-master/lib\liblwip.a(api_lib.o)
 .xtensa.info   0x0000000000000000        0x0 C:/sviluppo/ESP8266/projects/ESPWebFramework/../../SDK/esp_iot_rtos_sdk-master/lib\liblwip.a(api_msg.o)
 .xtensa.info   0x0000000000000000        0x0 C:/sviluppo/ESP8266/projects/ESPWebFramework/../../SDK/esp_iot_rtos_sdk-master/lib\liblwip.a(netbuf.o)
 .xtensa.info   0x0000000000000000        0x0 libuser.a(user_main.o)
 .xtensa.info   0x0000000000000000        0x0 libuser.a(fdvserial.o)
 .xtensa.info   0x0000000000000000        0x0 libuser.a(fdvsync.o)
 .xtensa.info   0x0000000000000000        0x0 libuser.a(fdvutils.o)
 .xtensa.info   0x0000000000000000        0x0 libuser.a(fdvflash.o)
 .xtensa.info   0x0000000000000000        0x0 c:/sviluppo/esp8266/sdk/xtensa-lx106-elf/bin/../lib/gcc/xtensa-lx106-elf/4.8.2\libgcc.a(_divsi3.o)
 .xtensa.info   0x0000000000000000        0x0 c:/sviluppo/esp8266/sdk/xtensa-lx106-elf/bin/../lib/gcc/xtensa-lx106-elf/4.8.2\libgcc.a(_udivsi3.o)
 .xtensa.info   0x0000000000000000        0x0 c:/sviluppo/esp8266/sdk/xtensa-lx106-elf/bin/../lib/gcc/xtensa-lx106-elf/4.8.2\libgcc.a(_umodsi3.o)
 .xtensa.info   0x0000000000000000        0x0 c:/sviluppo/esp8266/sdk/xtensa-lx106-elf/bin/../lib/gcc/xtensa-lx106-elf/4.8.2/../../../../xtensa-lx106-elf/lib\libcirom.a(lib_a-bzero.o)
 .xtensa.info   0x0000000000000000        0x0 c:/sviluppo/esp8266/sdk/xtensa-lx106-elf/bin/../lib/gcc/xtensa-lx106-elf/4.8.2/../../../../xtensa-lx106-elf/lib\libcirom.a(lib_a-memcmp.o)
 .xtensa.info   0x0000000000000000        0x0 c:/sviluppo/esp8266/sdk/xtensa-lx106-elf/bin/../lib/gcc/xtensa-lx106-elf/4.8.2/../../../../xtensa-lx106-elf/lib\libcirom.a(lib_a-memcpy.o)
 .xtensa.info   0x0000000000000000        0x0 c:/sviluppo/esp8266/sdk/xtensa-lx106-elf/bin/../lib/gcc/xtensa-lx106-elf/4.8.2/../../../../xtensa-lx106-elf/lib\libcirom.a(lib_a-memset.o)
 .xtensa.info   0x0000000000000000        0x0 c:/sviluppo/esp8266/sdk/xtensa-lx106-elf/bin/../lib/gcc/xtensa-lx106-elf/4.8.2/../../../../xtensa-lx106-elf/lib\libcirom.a(lib_a-strcmp.o)
 .xtensa.info   0x0000000000000000        0x0 c:/sviluppo/esp8266/sdk/xtensa-lx106-elf/bin/../lib/gcc/xtensa-lx106-elf/4.8.2/../../../../xtensa-lx106-elf/lib\libcirom.a(lib_a-strlen.o)
 .xtensa.info   0x0000000000000000        0x0 c:/sviluppo/esp8266/sdk/xtensa-lx106-elf/bin/../lib/gcc/xtensa-lx106-elf/4.8.2/../../../../xtensa-lx106-elf/lib\libcirom.a(lib_a-strncmp.o)
 .xtensa.info   0x0000000000000000        0x0 C:/sviluppo/ESP8266/projects/ESPWebFramework/../../SDK/esp_iot_rtos_sdk-master/lib\libhal.a(clock.o)
 .xtensa.info   0x0000000000000000        0x0 C:/sviluppo/ESP8266/projects/ESPWebFramework/../../SDK/esp_iot_rtos_sdk-master/lib\libhal.a(int_asm--set_intset.o)
 .xtensa.info   0x0000000000000000        0x0 C:/sviluppo/ESP8266/projects/ESPWebFramework/../../SDK/esp_iot_rtos_sdk-master/lib\libphy.a(phy.o)
 .xtensa.info   0x0000000000000000        0x0 C:/sviluppo/ESP8266/projects/ESPWebFramework/../../SDK/esp_iot_rtos_sdk-master/lib\libphy.a(phy_chip_v6_ana.o)
 .xtensa.info   0x0000000000000000        0x0 C:/sviluppo/ESP8266/projects/ESPWebFramework/../../SDK/esp_iot_rtos_sdk-master/lib\libphy.a(phy_chip_v6.o)
 .xtensa.info   0x0000000000000000        0x0 C:/sviluppo/ESP8266/projects/ESPWebFramework/../../SDK/esp_iot_rtos_sdk-master/lib\libphy.a(phy_chip_v6_cal.o)
 .xtensa.info   0x0000000000000000        0x0 C:/sviluppo/ESP8266/projects/ESPWebFramework/../../SDK/esp_iot_rtos_sdk-master/lib\libphy.a(phy_chip_v6_unused.o)
 .xtensa.info   0x0000000000000000        0x0 C:/sviluppo/ESP8266/projects/ESPWebFramework/../../SDK/esp_iot_rtos_sdk-master/lib\libphy.a(phy_sleep.o)
 .xtensa.info   0x0000000000000000        0x0 C:/sviluppo/ESP8266/projects/ESPWebFramework/../../SDK/esp_iot_rtos_sdk-master/lib\libphy.a(phy_chip_v5_romfunc.o)
 .xtensa.info   0x0000000000000000        0x0 C:/sviluppo/ESP8266/projects/ESPWebFramework/../../SDK/esp_iot_rtos_sdk-master/lib\libphy.a(phy_chip_v5_ana_romfunc.o)
 .xtensa.info   0x0000000000000000        0x0 C:/sviluppo/ESP8266/projects/ESPWebFramework/../../SDK/esp_iot_rtos_sdk-master/lib\libphy.a(phy_chip_v5_cal_romfunc.o)
 .xtensa.info   0x0000000000000000        0x0 C:/sviluppo/ESP8266/projects/ESPWebFramework/../../SDK/esp_iot_rtos_sdk-master/lib\libpp.a(lmac.o)
 .xtensa.info   0x0000000000000000        0x0 C:/sviluppo/ESP8266/projects/ESPWebFramework/../../SDK/esp_iot_rtos_sdk-master/lib\libpp.a(pm.o)
 .xtensa.info   0x0000000000000000        0x0 C:/sviluppo/ESP8266/projects/ESPWebFramework/../../SDK/esp_iot_rtos_sdk-master/lib\libpp.a(pp.o)
 .xtensa.info   0x0000000000000000        0x0 C:/sviluppo/ESP8266/projects/ESPWebFramework/../../SDK/esp_iot_rtos_sdk-master/lib\libpp.a(rate_control.o)
 .xtensa.info   0x0000000000000000        0x0 C:/sviluppo/ESP8266/projects/ESPWebFramework/../../SDK/esp_iot_rtos_sdk-master/lib\libpp.a(trc.o)
 .xtensa.info   0x0000000000000000        0x0 C:/sviluppo/ESP8266/projects/ESPWebFramework/../../SDK/esp_iot_rtos_sdk-master/lib\libpp.a(wdev.o)
 .xtensa.info   0x0000000000000000        0x0 C:/sviluppo/ESP8266/projects/ESPWebFramework/../../SDK/esp_iot_rtos_sdk-master/lib\libpp.a(esf_buf.o)
 .xtensa.info   0x0000000000000000        0x0 C:/sviluppo/ESP8266/projects/ESPWebFramework/../../SDK/esp_iot_rtos_sdk-master/lib\libpp.a(if_hwctrl.o)
 .xtensa.info   0x0000000000000000        0x0 C:/sviluppo/ESP8266/projects/ESPWebFramework/../../SDK/esp_iot_rtos_sdk-master/lib\libnet80211.a(ieee80211.o)
 .xtensa.info   0x0000000000000000        0x0 C:/sviluppo/ESP8266/projects/ESPWebFramework/../../SDK/esp_iot_rtos_sdk-master/lib\libnet80211.a(ieee80211_crypto.o)
 .xtensa.info   0x0000000000000000        0x0 C:/sviluppo/ESP8266/projects/ESPWebFramework/../../SDK/esp_iot_rtos_sdk-master/lib\libnet80211.a(ieee80211_ets.o)
 .xtensa.info   0x0000000000000000        0x0 C:/sviluppo/ESP8266/projects/ESPWebFramework/../../SDK/esp_iot_rtos_sdk-master/lib\libnet80211.a(ieee80211_hostap.o)
 .xtensa.info   0x0000000000000000        0x0 C:/sviluppo/ESP8266/projects/ESPWebFramework/../../SDK/esp_iot_rtos_sdk-master/lib\libnet80211.a(ieee80211_ht.o)
 .xtensa.info   0x0000000000000000        0x0 C:/sviluppo/ESP8266/projects/ESPWebFramework/../../SDK/esp_iot_rtos_sdk-master/lib\libnet80211.a(ieee80211_input.o)
 .xtensa.info   0x0000000000000000        0x0 C:/sviluppo/ESP8266/projects/ESPWebFramework/../../SDK/esp_iot_rtos_sdk-master/lib\libnet80211.a(ieee80211_output.o)
 .xtensa.info   0x0000000000000000        0x0 C:/sviluppo/ESP8266/projects/ESPWebFramework/../../SDK/esp_iot_rtos_sdk-master/lib\libnet80211.a(ieee80211_phy.o)
 .xtensa.info   0x0000000000000000        0x0 C:/sviluppo/ESP8266/projects/ESPWebFramework/../../SDK/esp_iot_rtos_sdk-master/lib\libnet80211.a(ieee80211_power.o)
 .xtensa.info   0x0000000000000000        0x0 C:/sviluppo/ESP8266/projects/ESPWebFramework/../../SDK/esp_iot_rtos_sdk-master/lib\libnet80211.a(ieee80211_proto.o)
 .xtensa.info   0x0000000000000000        0x0 C:/sviluppo/ESP8266/projects/ESPWebFramework/../../SDK/esp_iot_rtos_sdk-master/lib\libnet80211.a(ieee80211_scan.o)
 .xtensa.info   0x0000000000000000        0x0 C:/sviluppo/ESP8266/projects/ESPWebFramework/../../SDK/esp_iot_rtos_sdk-master/lib\libnet80211.a(ieee80211_sta.o)
 .xtensa.info   0x0000000000000000        0x0 C:/sviluppo/ESP8266/projects/ESPWebFramework/../../SDK/esp_iot_rtos_sdk-master/lib\libnet80211.a(wl_chm.o)
 .xtensa.info   0x0000000000000000        0x0 C:/sviluppo/ESP8266/projects/ESPWebFramework/../../SDK/esp_iot_rtos_sdk-master/lib\libnet80211.a(wl_cnx.o)
 .xtensa.info   0x0000000000000000        0x0 C:/sviluppo/ESP8266/projects/ESPWebFramework/../../SDK/esp_iot_rtos_sdk-master/lib\libnet80211.a(ieee80211_action.o)
 .xtensa.info   0x0000000000000000        0x0 C:/sviluppo/ESP8266/projects/ESPWebFramework/../../SDK/esp_iot_rtos_sdk-master/lib\libwpa.a(ap_config.o)
 .xtensa.info   0x0000000000000000        0x0 C:/sviluppo/ESP8266/projects/ESPWebFramework/../../SDK/esp_iot_rtos_sdk-master/lib\libwpa.a(common.o)
 .xtensa.info   0x0000000000000000        0x0 C:/sviluppo/ESP8266/projects/ESPWebFramework/../../SDK/esp_iot_rtos_sdk-master/lib\libwpa.a(os_xtensa.o)
 .xtensa.info   0x0000000000000000        0x0 C:/sviluppo/ESP8266/projects/ESPWebFramework/../../SDK/esp_iot_rtos_sdk-master/lib\libwpa.a(sha1-pbkdf2.o)
 .xtensa.info   0x0000000000000000        0x0 C:/sviluppo/ESP8266/projects/ESPWebFramework/../../SDK/esp_iot_rtos_sdk-master/lib\libwpa.a(wpa_auth.o)
 .xtensa.info   0x0000000000000000        0x0 C:/sviluppo/ESP8266/projects/ESPWebFramework/../../SDK/esp_iot_rtos_sdk-master/lib\libwpa.a(wpa_auth_ie.o)
 .xtensa.info   0x0000000000000000        0x0 C:/sviluppo/ESP8266/projects/ESPWebFramework/../../SDK/esp_iot_rtos_sdk-master/lib\libwpa.a(wpa.o)
 .xtensa.info   0x0000000000000000        0x0 C:/sviluppo/ESP8266/projects/ESPWebFramework/../../SDK/esp_iot_rtos_sdk-master/lib\libwpa.a(wpa_common.o)
 .xtensa.info   0x0000000000000000        0x0 C:/sviluppo/ESP8266/projects/ESPWebFramework/../../SDK/esp_iot_rtos_sdk-master/lib\libwpa.a(wpa_debug.o)
 .xtensa.info   0x0000000000000000        0x0 C:/sviluppo/ESP8266/projects/ESPWebFramework/../../SDK/esp_iot_rtos_sdk-master/lib\libwpa.a(wpa_ie.o)
 .xtensa.info   0x0000000000000000        0x0 C:/sviluppo/ESP8266/projects/ESPWebFramework/../../SDK/esp_iot_rtos_sdk-master/lib\libwpa.a(wpa_main.o)
 .xtensa.info   0x0000000000000000        0x0 C:/sviluppo/ESP8266/projects/ESPWebFramework/../../SDK/esp_iot_rtos_sdk-master/lib\libwpa.a(wpas_glue.o)
 .xtensa.info   0x0000000000000000        0x0 C:/sviluppo/ESP8266/projects/ESPWebFramework/../../SDK/esp_iot_rtos_sdk-master/lib\libwpa.a(aes-unwrap.o)
 .xtensa.info   0x0000000000000000        0x0 C:/sviluppo/ESP8266/projects/ESPWebFramework/../../SDK/esp_iot_rtos_sdk-master/lib\libwpa.a(aes-wrap.o)
 .xtensa.info   0x0000000000000000        0x0 C:/sviluppo/ESP8266/projects/ESPWebFramework/../../SDK/esp_iot_rtos_sdk-master/lib\libwpa.a(md5.o)
 .xtensa.info   0x0000000000000000        0x0 C:/sviluppo/ESP8266/projects/ESPWebFramework/../../SDK/esp_iot_rtos_sdk-master/lib\libwpa.a(md5-internal.o)
 .xtensa.info   0x0000000000000000        0x0 C:/sviluppo/ESP8266/projects/ESPWebFramework/../../SDK/esp_iot_rtos_sdk-master/lib\libwpa.a(rc4.o)
 .xtensa.info   0x0000000000000000        0x0 C:/sviluppo/ESP8266/projects/ESPWebFramework/../../SDK/esp_iot_rtos_sdk-master/lib\libwpa.a(sha1.o)
 .xtensa.info   0x0000000000000000        0x0 C:/sviluppo/ESP8266/projects/ESPWebFramework/../../SDK/esp_iot_rtos_sdk-master/lib\libwpa.a(sha1-internal.o)
 .xtensa.info   0x0000000000000000        0x0 C:/sviluppo/ESP8266/projects/ESPWebFramework/../../SDK/esp_iot_rtos_sdk-master/lib\libwpa.a(aes-internal-dec.o)
 .xtensa.info   0x0000000000000000        0x0 C:/sviluppo/ESP8266/projects/ESPWebFramework/../../SDK/esp_iot_rtos_sdk-master/lib\libwpa.a(aes-internal-enc.o)
 .xtensa.info   0x0000000000000000        0x0 C:/sviluppo/ESP8266/projects/ESPWebFramework/../../SDK/esp_iot_rtos_sdk-master/lib\libwpa.a(aes-internal.o)
 .xtensa.info   0x0000000000000000        0x0 C:/sviluppo/ESP8266/projects/ESPWebFramework/../../SDK/esp_iot_rtos_sdk-master/lib\libmain.a(libc.o)
 .xtensa.info   0x0000000000000000        0x0 C:/sviluppo/ESP8266/projects/ESPWebFramework/../../SDK/esp_iot_rtos_sdk-master/lib\liblwip.a(ethernetif.o)
 .xtensa.info   0x0000000000000000        0x0 c:/sviluppo/esp8266/sdk/xtensa-lx106-elf/bin/../lib/gcc/xtensa-lx106-elf/4.8.2\libgcc.a(_modsi3.o)
 .xtensa.info   0x0000000000000000        0x0 c:/sviluppo/esp8266/sdk/xtensa-lx106-elf/bin/../lib/gcc/xtensa-lx106-elf/4.8.2\libgcc.a(_ashrdi3.o)
 .xtensa.info   0x0000000000000000        0x0 c:/sviluppo/esp8266/sdk/xtensa-lx106-elf/bin/../lib/gcc/xtensa-lx106-elf/4.8.2\libgcc.a(_addsubsf3.o)
 .xtensa.info   0x0000000000000000        0x0 c:/sviluppo/esp8266/sdk/xtensa-lx106-elf/bin/../lib/gcc/xtensa-lx106-elf/4.8.2\libgcc.a(_mulsf3.o)
 .xtensa.info   0x0000000000000000        0x0 c:/sviluppo/esp8266/sdk/xtensa-lx106-elf/bin/../lib/gcc/xtensa-lx106-elf/4.8.2\libgcc.a(_divsf3.o)
 .xtensa.info   0x0000000000000000        0x0 c:/sviluppo/esp8266/sdk/xtensa-lx106-elf/bin/../lib/gcc/xtensa-lx106-elf/4.8.2\libgcc.a(_fixsfsi.o)
 .xtensa.info   0x0000000000000000        0x0 c:/sviluppo/esp8266/sdk/xtensa-lx106-elf/bin/../lib/gcc/xtensa-lx106-elf/4.8.2\libgcc.a(_fixunssfsi.o)
 .xtensa.info   0x0000000000000000        0x0 c:/sviluppo/esp8266/sdk/xtensa-lx106-elf/bin/../lib/gcc/xtensa-lx106-elf/4.8.2\libgcc.a(_floatsisf.o)
 .xtensa.info   0x0000000000000000        0x0 c:/sviluppo/esp8266/sdk/xtensa-lx106-elf/bin/../lib/gcc/xtensa-lx106-elf/4.8.2\libgcc.a(_addsubdf3.o)
 .xtensa.info   0x0000000000000000        0x0 c:/sviluppo/esp8266/sdk/xtensa-lx106-elf/bin/../lib/gcc/xtensa-lx106-elf/4.8.2\libgcc.a(_muldf3.o)
 .xtensa.info   0x0000000000000000        0x0 c:/sviluppo/esp8266/sdk/xtensa-lx106-elf/bin/../lib/gcc/xtensa-lx106-elf/4.8.2\libgcc.a(_divdf3.o)
 .xtensa.info   0x0000000000000000        0x0 c:/sviluppo/esp8266/sdk/xtensa-lx106-elf/bin/../lib/gcc/xtensa-lx106-elf/4.8.2\libgcc.a(_fixdfsi.o)
 .xtensa.info   0x0000000000000000        0x0 c:/sviluppo/esp8266/sdk/xtensa-lx106-elf/bin/../lib/gcc/xtensa-lx106-elf/4.8.2\libgcc.a(_floatsidf.o)
 .xtensa.info   0x0000000000000000        0x0 c:/sviluppo/esp8266/sdk/xtensa-lx106-elf/bin/../lib/gcc/xtensa-lx106-elf/4.8.2\libgcc.a(_truncdfsf2.o)
 .xtensa.info   0x0000000000000000        0x0 c:/sviluppo/esp8266/sdk/xtensa-lx106-elf/bin/../lib/gcc/xtensa-lx106-elf/4.8.2\libgcc.a(_extendsfdf2.o)
 .xtensa.info   0x0000000000000000        0x0 c:/sviluppo/esp8266/sdk/xtensa-lx106-elf/bin/../lib/gcc/xtensa-lx106-elf/4.8.2\libgcc.a(_muldi3.o)
 .xtensa.info   0x0000000000000000        0x0 c:/sviluppo/esp8266/sdk/xtensa-lx106-elf/bin/../lib/gcc/xtensa-lx106-elf/4.8.2\libgcc.a(_popcountsi2.o)
 .xtensa.info   0x0000000000000000        0x0 c:/sviluppo/esp8266/sdk/xtensa-lx106-elf/bin/../lib/gcc/xtensa-lx106-elf/4.8.2\libgcc.a(_divdi3.o)
 .xtensa.info   0x0000000000000000        0x0 c:/sviluppo/esp8266/sdk/xtensa-lx106-elf/bin/../lib/gcc/xtensa-lx106-elf/4.8.2\libgcc.a(_umoddi3.o)
 .xtensa.info   0x0000000000000000        0x0 c:/sviluppo/esp8266/sdk/xtensa-lx106-elf/bin/../lib/gcc/xtensa-lx106-elf/4.8.2\libgcc.a(_umulsidi3.o)
 .xtensa.info   0x0000000000000000        0x0 c:/sviluppo/esp8266/sdk/xtensa-lx106-elf/bin/../lib/gcc/xtensa-lx106-elf/4.8.2\libgcc.a(_popcount_tab.o)
 .xtensa.info   0x0000000000000000        0x0 c:/sviluppo/esp8266/sdk/xtensa-lx106-elf/bin/../lib/gcc/xtensa-lx106-elf/4.8.2/../../../../xtensa-lx106-elf/lib\libcirom.a(lib_a-strncpy.o)
 .xtensa.info   0x0000000000000000        0x0 C:/sviluppo/ESP8266/projects/ESPWebFramework/../../SDK/esp_iot_rtos_sdk-master/lib\libnet80211.a(ieee80211_crypto_ccmp.o)
 .xtensa.info   0x0000000000000000        0x0 C:/sviluppo/ESP8266/projects/ESPWebFramework/../../SDK/esp_iot_rtos_sdk-master/lib\libnet80211.a(ieee80211_crypto_tkip.o)
 .xtensa.info   0x0000000000000000        0x0 C:/sviluppo/ESP8266/projects/ESPWebFramework/../../SDK/esp_iot_rtos_sdk-master/lib\libnet80211.a(ieee80211_crypto_wep.o)

.comment        0x0000000000000000     0x1af5
 .comment       0x0000000000000000       0x46 C:/sviluppo/ESP8266/projects/ESPWebFramework/../../SDK/esp_iot_rtos_sdk-master/lib\libmain.a(app_main.o)
 .comment       0x0000000000000046       0x42 C:/sviluppo/ESP8266/projects/ESPWebFramework/../../SDK/esp_iot_rtos_sdk-master/lib\libmain.a(misc.o)
 .comment       0x0000000000000088       0x4b C:/sviluppo/ESP8266/projects/ESPWebFramework/../../SDK/esp_iot_rtos_sdk-master/lib\libmain.a(printf-stdarg.o)
 .comment       0x00000000000000d3       0x47 C:/sviluppo/ESP8266/projects/ESPWebFramework/../../SDK/esp_iot_rtos_sdk-master/lib\libmain.a(spi_flash.o)
 .comment       0x000000000000011a       0x42 C:/sviluppo/ESP8266/projects/ESPWebFramework/../../SDK/esp_iot_rtos_sdk-master/lib\libmain.a(uart.o)
 .comment       0x000000000000015c       0x4c C:/sviluppo/ESP8266/projects/ESPWebFramework/../../SDK/esp_iot_rtos_sdk-master/lib\libmain.a(user_interface.o)
 .comment       0x00000000000001a8       0x44 C:/sviluppo/ESP8266/projects/ESPWebFramework/../../SDK/esp_iot_rtos_sdk-master/lib\libmain.a(timers.o)
 .comment       0x00000000000001ec       0x44 C:/sviluppo/ESP8266/projects/ESPWebFramework/../../SDK/esp_iot_rtos_sdk-master/lib\libfreertos.a(heap_4.o)
 .comment       0x0000000000000230       0x42 C:/sviluppo/ESP8266/projects/ESPWebFramework/../../SDK/esp_iot_rtos_sdk-master/lib\libfreertos.a(port.o)
 .comment       0x0000000000000272       0x43 C:/sviluppo/ESP8266/projects/ESPWebFramework/../../SDK/esp_iot_rtos_sdk-master/lib\libfreertos.a(queue.o)
 .comment       0x00000000000002b5       0x43 C:/sviluppo/ESP8266/projects/ESPWebFramework/../../SDK/esp_iot_rtos_sdk-master/lib\libfreertos.a(tasks.o)
 .comment       0x00000000000002f8       0x44 C:/sviluppo/ESP8266/projects/ESPWebFramework/../../SDK/esp_iot_rtos_sdk-master/lib\libfreertos.a(timers.o)
 .comment       0x000000000000033c       0x42 C:/sviluppo/ESP8266/projects/ESPWebFramework/../../SDK/esp_iot_rtos_sdk-master/lib\libfreertos.a(list.o)
 .comment       0x000000000000037e       0x42 C:/sviluppo/ESP8266/projects/ESPWebFramework/../../SDK/esp_iot_rtos_sdk-master/lib\liblwip.a(dhcp.o)
 .comment       0x00000000000003c0       0x41 C:/sviluppo/ESP8266/projects/ESPWebFramework/../../SDK/esp_iot_rtos_sdk-master/lib\liblwip.a(dns.o)
 .comment       0x0000000000000401       0x44 C:/sviluppo/ESP8266/projects/ESPWebFramework/../../SDK/esp_iot_rtos_sdk-master/lib\liblwip.a(etharp.o)
 .comment       0x0000000000000445       0x46 C:/sviluppo/ESP8266/projects/ESPWebFramework/../../SDK/esp_iot_rtos_sdk-master/lib\liblwip.a(ip4_addr.o)
 .comment       0x000000000000048b       0x41 C:/sviluppo/ESP8266/projects/ESPWebFramework/../../SDK/esp_iot_rtos_sdk-master/lib\liblwip.a(ip4.o)
 .comment       0x00000000000004cc       0x45 C:/sviluppo/ESP8266/projects/ESPWebFramework/../../SDK/esp_iot_rtos_sdk-master/lib\liblwip.a(ip_frag.o)
 .comment       0x0000000000000511       0x42 C:/sviluppo/ESP8266/projects/ESPWebFramework/../../SDK/esp_iot_rtos_sdk-master/lib\liblwip.a(memp.o)
 .comment       0x0000000000000553       0x43 C:/sviluppo/ESP8266/projects/ESPWebFramework/../../SDK/esp_iot_rtos_sdk-master/lib\liblwip.a(netif.o)
 .comment       0x0000000000000596       0x42 C:/sviluppo/ESP8266/projects/ESPWebFramework/../../SDK/esp_iot_rtos_sdk-master/lib\liblwip.a(pbuf.o)
 .comment       0x00000000000005d8       0x41 C:/sviluppo/ESP8266/projects/ESPWebFramework/../../SDK/esp_iot_rtos_sdk-master/lib\liblwip.a(raw.o)
 .comment       0x0000000000000619       0x43 C:/sviluppo/ESP8266/projects/ESPWebFramework/../../SDK/esp_iot_rtos_sdk-master/lib\liblwip.a(stats.o)
 .comment       0x000000000000065c       0x46 C:/sviluppo/ESP8266/projects/ESPWebFramework/../../SDK/esp_iot_rtos_sdk-master/lib\liblwip.a(sys_arch.o)
 .comment       0x00000000000006a2       0x44 C:/sviluppo/ESP8266/projects/ESPWebFramework/../../SDK/esp_iot_rtos_sdk-master/lib\liblwip.a(tcp_in.o)
 .comment       0x00000000000006e6       0x43 C:/sviluppo/ESP8266/projects/ESPWebFramework/../../SDK/esp_iot_rtos_sdk-master/lib\liblwip.a(tcpip.o)
 .comment       0x0000000000000729       0x41 C:/sviluppo/ESP8266/projects/ESPWebFramework/../../SDK/esp_iot_rtos_sdk-master/lib\liblwip.a(tcp.o)
 .comment       0x000000000000076a       0x45 C:/sviluppo/ESP8266/projects/ESPWebFramework/../../SDK/esp_iot_rtos_sdk-master/lib\liblwip.a(tcp_out.o)
 .comment       0x00000000000007af       0x44 C:/sviluppo/ESP8266/projects/ESPWebFramework/../../SDK/esp_iot_rtos_sdk-master/lib\liblwip.a(timers.o)
 .comment       0x00000000000007f3       0x41 C:/sviluppo/ESP8266/projects/ESPWebFramework/../../SDK/esp_iot_rtos_sdk-master/lib\liblwip.a(udp.o)
 .comment       0x0000000000000834       0x42 C:/sviluppo/ESP8266/projects/ESPWebFramework/../../SDK/esp_iot_rtos_sdk-master/lib\liblwip.a(icmp.o)
 .comment       0x0000000000000876       0x49 C:/sviluppo/ESP8266/projects/ESPWebFramework/../../SDK/esp_iot_rtos_sdk-master/lib\liblwip.a(inet_chksum.o)
 .comment       0x00000000000008bf       0x42 C:/sviluppo/ESP8266/projects/ESPWebFramework/../../SDK/esp_iot_rtos_sdk-master/lib\liblwip.a(init.o)
 .comment       0x0000000000000901       0x45 C:/sviluppo/ESP8266/projects/ESPWebFramework/../../SDK/esp_iot_rtos_sdk-master/lib\liblwip.a(sockets.o)
 .comment       0x0000000000000946       0x45 C:/sviluppo/ESP8266/projects/ESPWebFramework/../../SDK/esp_iot_rtos_sdk-master/lib\liblwip.a(api_lib.o)
 .comment       0x000000000000098b       0x45 C:/sviluppo/ESP8266/projects/ESPWebFramework/../../SDK/esp_iot_rtos_sdk-master/lib\liblwip.a(api_msg.o)
 .comment       0x00000000000009d0       0x44 C:/sviluppo/ESP8266/projects/ESPWebFramework/../../SDK/esp_iot_rtos_sdk-master/lib\liblwip.a(netbuf.o)
 .comment       0x0000000000000a14       0x11 libuser.a(user_main.o)
                                         0x12 (size before relaxing)
 .comment       0x0000000000000000       0x12 libuser.a(fdvserial.o)
 .comment       0x0000000000000000       0x12 libuser.a(fdvsync.o)
 .comment       0x0000000000000000       0x12 libuser.a(fdvutils.o)
 .comment       0x0000000000000000       0x12 libuser.a(fdvflash.o)
 .comment       0x0000000000000000       0x12 c:/sviluppo/esp8266/sdk/xtensa-lx106-elf/bin/../lib/gcc/xtensa-lx106-elf/4.8.2/../../../../xtensa-lx106-elf/lib\libcirom.a(lib_a-bzero.o)
 .comment       0x0000000000000000       0x12 c:/sviluppo/esp8266/sdk/xtensa-lx106-elf/bin/../lib/gcc/xtensa-lx106-elf/4.8.2/../../../../xtensa-lx106-elf/lib\libcirom.a(lib_a-memcmp.o)
 .comment       0x0000000000000000       0x12 c:/sviluppo/esp8266/sdk/xtensa-lx106-elf/bin/../lib/gcc/xtensa-lx106-elf/4.8.2/../../../../xtensa-lx106-elf/lib\libcirom.a(lib_a-strncmp.o)
 .comment       0x0000000000000a25       0x41 C:/sviluppo/ESP8266/projects/ESPWebFramework/../../SDK/esp_iot_rtos_sdk-master/lib\libphy.a(phy.o)
 .comment       0x0000000000000a66       0x4d C:/sviluppo/ESP8266/projects/ESPWebFramework/../../SDK/esp_iot_rtos_sdk-master/lib\libphy.a(phy_chip_v6_ana.o)
 .comment       0x0000000000000ab3       0x49 C:/sviluppo/ESP8266/projects/ESPWebFramework/../../SDK/esp_iot_rtos_sdk-master/lib\libphy.a(phy_chip_v6.o)
 .comment       0x0000000000000afc       0x4d C:/sviluppo/ESP8266/projects/ESPWebFramework/../../SDK/esp_iot_rtos_sdk-master/lib\libphy.a(phy_chip_v6_cal.o)
 .comment       0x0000000000000b49       0x50 C:/sviluppo/ESP8266/projects/ESPWebFramework/../../SDK/esp_iot_rtos_sdk-master/lib\libphy.a(phy_chip_v6_unused.o)
 .comment       0x0000000000000b99       0x47 C:/sviluppo/ESP8266/projects/ESPWebFramework/../../SDK/esp_iot_rtos_sdk-master/lib\libphy.a(phy_sleep.o)
 .comment       0x0000000000000be0       0x51 C:/sviluppo/ESP8266/projects/ESPWebFramework/../../SDK/esp_iot_rtos_sdk-master/lib\libphy.a(phy_chip_v5_romfunc.o)
 .comment       0x0000000000000c31       0x55 C:/sviluppo/ESP8266/projects/ESPWebFramework/../../SDK/esp_iot_rtos_sdk-master/lib\libphy.a(phy_chip_v5_ana_romfunc.o)
 .comment       0x0000000000000c86       0x55 C:/sviluppo/ESP8266/projects/ESPWebFramework/../../SDK/esp_iot_rtos_sdk-master/lib\libphy.a(phy_chip_v5_cal_romfunc.o)
 .comment       0x0000000000000cdb       0x42 C:/sviluppo/ESP8266/projects/ESPWebFramework/../../SDK/esp_iot_rtos_sdk-master/lib\libpp.a(lmac.o)
 .comment       0x0000000000000d1d       0x40 C:/sviluppo/ESP8266/projects/ESPWebFramework/../../SDK/esp_iot_rtos_sdk-master/lib\libpp.a(pm.o)
 .comment       0x0000000000000d5d       0x40 C:/sviluppo/ESP8266/projects/ESPWebFramework/../../SDK/esp_iot_rtos_sdk-master/lib\libpp.a(pp.o)
 .comment       0x0000000000000d9d       0x4a C:/sviluppo/ESP8266/projects/ESPWebFramework/../../SDK/esp_iot_rtos_sdk-master/lib\libpp.a(rate_control.o)
 .comment       0x0000000000000de7       0x41 C:/sviluppo/ESP8266/projects/ESPWebFramework/../../SDK/esp_iot_rtos_sdk-master/lib\libpp.a(trc.o)
 .comment       0x0000000000000e28       0x42 C:/sviluppo/ESP8266/projects/ESPWebFramework/../../SDK/esp_iot_rtos_sdk-master/lib\libpp.a(wdev.o)
 .comment       0x0000000000000e6a       0x45 C:/sviluppo/ESP8266/projects/ESPWebFramework/../../SDK/esp_iot_rtos_sdk-master/lib\libpp.a(esf_buf.o)
 .comment       0x0000000000000eaf       0x47 C:/sviluppo/ESP8266/projects/ESPWebFramework/../../SDK/esp_iot_rtos_sdk-master/lib\libpp.a(if_hwctrl.o)
 .comment       0x0000000000000ef6       0x47 C:/sviluppo/ESP8266/projects/ESPWebFramework/../../SDK/esp_iot_rtos_sdk-master/lib\libnet80211.a(ieee80211.o)
 .comment       0x0000000000000f3d       0x4e C:/sviluppo/ESP8266/projects/ESPWebFramework/../../SDK/esp_iot_rtos_sdk-master/lib\libnet80211.a(ieee80211_crypto.o)
 .comment       0x0000000000000f8b       0x4b C:/sviluppo/ESP8266/projects/ESPWebFramework/../../SDK/esp_iot_rtos_sdk-master/lib\libnet80211.a(ieee80211_ets.o)
 .comment       0x0000000000000fd6       0x4e C:/sviluppo/ESP8266/projects/ESPWebFramework/../../SDK/esp_iot_rtos_sdk-master/lib\libnet80211.a(ieee80211_hostap.o)
 .comment       0x0000000000001024       0x4a C:/sviluppo/ESP8266/projects/ESPWebFramework/../../SDK/esp_iot_rtos_sdk-master/lib\libnet80211.a(ieee80211_ht.o)
 .comment       0x000000000000106e       0x4d C:/sviluppo/ESP8266/projects/ESPWebFramework/../../SDK/esp_iot_rtos_sdk-master/lib\libnet80211.a(ieee80211_input.o)
 .comment       0x00000000000010bb       0x4e C:/sviluppo/ESP8266/projects/ESPWebFramework/../../SDK/esp_iot_rtos_sdk-master/lib\libnet80211.a(ieee80211_output.o)
 .comment       0x0000000000001109       0x4b C:/sviluppo/ESP8266/projects/ESPWebFramework/../../SDK/esp_iot_rtos_sdk-master/lib\libnet80211.a(ieee80211_phy.o)
 .comment       0x0000000000001154       0x4d C:/sviluppo/ESP8266/projects/ESPWebFramework/../../SDK/esp_iot_rtos_sdk-master/lib\libnet80211.a(ieee80211_power.o)
 .comment       0x00000000000011a1       0x4d C:/sviluppo/ESP8266/projects/ESPWebFramework/../../SDK/esp_iot_rtos_sdk-master/lib\libnet80211.a(ieee80211_proto.o)
 .comment       0x00000000000011ee       0x4c C:/sviluppo/ESP8266/projects/ESPWebFramework/../../SDK/esp_iot_rtos_sdk-master/lib\libnet80211.a(ieee80211_scan.o)
 .comment       0x000000000000123a       0x4b C:/sviluppo/ESP8266/projects/ESPWebFramework/../../SDK/esp_iot_rtos_sdk-master/lib\libnet80211.a(ieee80211_sta.o)
 .comment       0x0000000000001285       0x44 C:/sviluppo/ESP8266/projects/ESPWebFramework/../../SDK/esp_iot_rtos_sdk-master/lib\libnet80211.a(wl_chm.o)
 .comment       0x00000000000012c9       0x44 C:/sviluppo/ESP8266/projects/ESPWebFramework/../../SDK/esp_iot_rtos_sdk-master/lib\libnet80211.a(wl_cnx.o)
 .comment       0x000000000000130d       0x4e C:/sviluppo/ESP8266/projects/ESPWebFramework/../../SDK/esp_iot_rtos_sdk-master/lib\libnet80211.a(ieee80211_action.o)
 .comment       0x000000000000135b       0x47 C:/sviluppo/ESP8266/projects/ESPWebFramework/../../SDK/esp_iot_rtos_sdk-master/lib\libwpa.a(ap_config.o)
 .comment       0x00000000000013a2       0x44 C:/sviluppo/ESP8266/projects/ESPWebFramework/../../SDK/esp_iot_rtos_sdk-master/lib\libwpa.a(common.o)
 .comment       0x00000000000013e6       0x47 C:/sviluppo/ESP8266/projects/ESPWebFramework/../../SDK/esp_iot_rtos_sdk-master/lib\libwpa.a(os_xtensa.o)
 .comment       0x000000000000142d       0x49 C:/sviluppo/ESP8266/projects/ESPWebFramework/../../SDK/esp_iot_rtos_sdk-master/lib\libwpa.a(sha1-pbkdf2.o)
 .comment       0x0000000000001476       0x46 C:/sviluppo/ESP8266/projects/ESPWebFramework/../../SDK/esp_iot_rtos_sdk-master/lib\libwpa.a(wpa_auth.o)
 .comment       0x00000000000014bc       0x49 C:/sviluppo/ESP8266/projects/ESPWebFramework/../../SDK/esp_iot_rtos_sdk-master/lib\libwpa.a(wpa_auth_ie.o)
 .comment       0x0000000000001505       0x41 C:/sviluppo/ESP8266/projects/ESPWebFramework/../../SDK/esp_iot_rtos_sdk-master/lib\libwpa.a(wpa.o)
 .comment       0x0000000000001546       0x48 C:/sviluppo/ESP8266/projects/ESPWebFramework/../../SDK/esp_iot_rtos_sdk-master/lib\libwpa.a(wpa_common.o)
 .comment       0x000000000000158e       0x47 C:/sviluppo/ESP8266/projects/ESPWebFramework/../../SDK/esp_iot_rtos_sdk-master/lib\libwpa.a(wpa_debug.o)
 .comment       0x00000000000015d5       0x44 C:/sviluppo/ESP8266/projects/ESPWebFramework/../../SDK/esp_iot_rtos_sdk-master/lib\libwpa.a(wpa_ie.o)
 .comment       0x0000000000001619       0x46 C:/sviluppo/ESP8266/projects/ESPWebFramework/../../SDK/esp_iot_rtos_sdk-master/lib\libwpa.a(wpa_main.o)
 .comment       0x000000000000165f       0x47 C:/sviluppo/ESP8266/projects/ESPWebFramework/../../SDK/esp_iot_rtos_sdk-master/lib\libwpa.a(wpas_glue.o)
 .comment       0x00000000000016a6       0x48 C:/sviluppo/ESP8266/projects/ESPWebFramework/../../SDK/esp_iot_rtos_sdk-master/lib\libwpa.a(aes-unwrap.o)
 .comment       0x00000000000016ee       0x46 C:/sviluppo/ESP8266/projects/ESPWebFramework/../../SDK/esp_iot_rtos_sdk-master/lib\libwpa.a(aes-wrap.o)
 .comment       0x0000000000001734       0x41 C:/sviluppo/ESP8266/projects/ESPWebFramework/../../SDK/esp_iot_rtos_sdk-master/lib\libwpa.a(md5.o)
 .comment       0x0000000000001775       0x4a C:/sviluppo/ESP8266/projects/ESPWebFramework/../../SDK/esp_iot_rtos_sdk-master/lib\libwpa.a(md5-internal.o)
 .comment       0x00000000000017bf       0x41 C:/sviluppo/ESP8266/projects/ESPWebFramework/../../SDK/esp_iot_rtos_sdk-master/lib\libwpa.a(rc4.o)
 .comment       0x0000000000001800       0x42 C:/sviluppo/ESP8266/projects/ESPWebFramework/../../SDK/esp_iot_rtos_sdk-master/lib\libwpa.a(sha1.o)
 .comment       0x0000000000001842       0x4b C:/sviluppo/ESP8266/projects/ESPWebFramework/../../SDK/esp_iot_rtos_sdk-master/lib\libwpa.a(sha1-internal.o)
 .comment       0x000000000000188d       0x4e C:/sviluppo/ESP8266/projects/ESPWebFramework/../../SDK/esp_iot_rtos_sdk-master/lib\libwpa.a(aes-internal-dec.o)
 .comment       0x00000000000018db       0x4e C:/sviluppo/ESP8266/projects/ESPWebFramework/../../SDK/esp_iot_rtos_sdk-master/lib\libwpa.a(aes-internal-enc.o)
 .comment       0x0000000000001929       0x4a C:/sviluppo/ESP8266/projects/ESPWebFramework/../../SDK/esp_iot_rtos_sdk-master/lib\libwpa.a(aes-internal.o)
 .comment       0x0000000000001973       0x42 C:/sviluppo/ESP8266/projects/ESPWebFramework/../../SDK/esp_iot_rtos_sdk-master/lib\libmain.a(libc.o)
 .comment       0x00000000000019b5       0x48 C:/sviluppo/ESP8266/projects/ESPWebFramework/../../SDK/esp_iot_rtos_sdk-master/lib\liblwip.a(ethernetif.o)
 .comment       0x0000000000000000       0x12 c:/sviluppo/esp8266/sdk/xtensa-lx106-elf/bin/../lib/gcc/xtensa-lx106-elf/4.8.2\libgcc.a(_muldi3.o)
 .comment       0x0000000000000000       0x12 c:/sviluppo/esp8266/sdk/xtensa-lx106-elf/bin/../lib/gcc/xtensa-lx106-elf/4.8.2\libgcc.a(_popcountsi2.o)
 .comment       0x0000000000000000       0x12 c:/sviluppo/esp8266/sdk/xtensa-lx106-elf/bin/../lib/gcc/xtensa-lx106-elf/4.8.2\libgcc.a(_divdi3.o)
 .comment       0x0000000000000000       0x12 c:/sviluppo/esp8266/sdk/xtensa-lx106-elf/bin/../lib/gcc/xtensa-lx106-elf/4.8.2\libgcc.a(_umoddi3.o)
 .comment       0x0000000000000000       0x12 c:/sviluppo/esp8266/sdk/xtensa-lx106-elf/bin/../lib/gcc/xtensa-lx106-elf/4.8.2\libgcc.a(_popcount_tab.o)
 .comment       0x00000000000019fd       0x53 C:/sviluppo/ESP8266/projects/ESPWebFramework/../../SDK/esp_iot_rtos_sdk-master/lib\libnet80211.a(ieee80211_crypto_ccmp.o)
 .comment       0x0000000000001a50       0x53 C:/sviluppo/ESP8266/projects/ESPWebFramework/../../SDK/esp_iot_rtos_sdk-master/lib\libnet80211.a(ieee80211_crypto_tkip.o)
 .comment       0x0000000000001aa3       0x52 C:/sviluppo/ESP8266/projects/ESPWebFramework/../../SDK/esp_iot_rtos_sdk-master/lib\libnet80211.a(ieee80211_crypto_wep.o)

.xt.lit.text    0x0000000000000000       0x10
 .xt.lit.text   0x0000000000000000       0x10 libuser.a(user_main.o)

.xt.prop.text   0x0000000000000000      0x240
 .xt.prop.text  0x0000000000000000      0x240 libuser.a(user_main.o)

.xt.prop._ZTVN3fdv4TaskE
                0x0000000000000000        0xc
 .xt.prop._ZTVN3fdv4TaskE
                0x0000000000000000        0xc libuser.a(user_main.o)

.xt.prop._ZTV5Task1
                0x0000000000000000        0xc
 .xt.prop._ZTV5Task1
                0x0000000000000000        0xc libuser.a(user_main.o)

.xt.prop._ZTV8MainTask
                0x0000000000000000        0xc
 .xt.prop._ZTV8MainTask
                0x0000000000000000        0xc libuser.a(user_main.o)

.xt.lit._ZN3fdv14HardwareSerial3putEh
                0x0000000000000000        0x0
 .xt.lit._ZN3fdv14HardwareSerial3putEh
                0x0000000000000000        0x0 libuser.a(fdvserial.o)
                                          0x8 (size before relaxing)

.xt.lit._ZN3fdv14HardwareSerial4peekEv
                0x0000000000000000        0x8
 .xt.lit._ZN3fdv14HardwareSerial4peekEv
                0x0000000000000000        0x8 libuser.a(fdvserial.o)

.xt.lit._ZN3fdv14HardwareSerial11waitForDataEm
                0x0000000000000000        0x0
 .xt.lit._ZN3fdv14HardwareSerial11waitForDataEm
                0x0000000000000000        0x0 libuser.a(fdvserial.o)
                                          0x8 (size before relaxing)

.xt.lit._ZN3fdv14HardwareSerial4readEv
                0x0000000000000000        0x0
 .xt.lit._ZN3fdv14HardwareSerial4readEv
                0x0000000000000000        0x0 libuser.a(fdvserial.o)
                                          0x8 (size before relaxing)

.xt.lit._ZN3fdv14HardwareSerial9availableEv
                0x0000000000000000        0x8
 .xt.lit._ZN3fdv14HardwareSerial9availableEv
                0x0000000000000000        0x8 libuser.a(fdvserial.o)

.xt.lit._ZN3fdv14HardwareSerial5flushEv
                0x0000000000000000        0x8
 .xt.lit._ZN3fdv14HardwareSerial5flushEv
                0x0000000000000000        0x8 libuser.a(fdvserial.o)

.xt.prop._ZN3fdv14HardwareSerial3putEh
                0x0000000000000000       0x24
 .xt.prop._ZN3fdv14HardwareSerial3putEh
                0x0000000000000000       0x24 libuser.a(fdvserial.o)

.xt.prop._ZN3fdv14HardwareSerial4peekEv
                0x0000000000000000       0x24
 .xt.prop._ZN3fdv14HardwareSerial4peekEv
                0x0000000000000000       0x24 libuser.a(fdvserial.o)

.xt.prop._ZN3fdv14HardwareSerial11waitForDataEm
                0x0000000000000000       0x24
 .xt.prop._ZN3fdv14HardwareSerial11waitForDataEm
                0x0000000000000000       0x24 libuser.a(fdvserial.o)

.xt.prop._ZN3fdv14HardwareSerial4readEv
                0x0000000000000000       0x24
 .xt.prop._ZN3fdv14HardwareSerial4readEv
                0x0000000000000000       0x24 libuser.a(fdvserial.o)

.xt.prop._ZN3fdv14HardwareSerial9availableEv
                0x0000000000000000       0x24
 .xt.prop._ZN3fdv14HardwareSerial9availableEv
                0x0000000000000000       0x24 libuser.a(fdvserial.o)

.xt.prop._ZN3fdv14HardwareSerial5flushEv
                0x0000000000000000       0x24
 .xt.prop._ZN3fdv14HardwareSerial5flushEv
                0x0000000000000000       0x24 libuser.a(fdvserial.o)

.xt.prop._ZTVN3fdv14HardwareSerialE
                0x0000000000000000        0xc
 .xt.prop._ZTVN3fdv14HardwareSerialE
                0x0000000000000000        0xc libuser.a(fdvserial.o)

.debug_line     0x0000000000000000     0x7a55
 .debug_line    0x0000000000000000      0x427 C:/sviluppo/ESP8266/projects/ESPWebFramework/../../SDK/esp_iot_rtos_sdk-master/lib\libmain.a(xtensa_vectors.o)
 .debug_line    0x0000000000000427      0x6e2 C:/sviluppo/ESP8266/projects/ESPWebFramework/../../SDK/esp_iot_rtos_sdk-master/lib\libmain.a(app_main.o)
 .debug_line    0x0000000000000b09      0x114 C:/sviluppo/ESP8266/projects/ESPWebFramework/../../SDK/esp_iot_rtos_sdk-master/lib\libmain.a(misc.o)
 .debug_line    0x0000000000000c1d      0x374 C:/sviluppo/ESP8266/projects/ESPWebFramework/../../SDK/esp_iot_rtos_sdk-master/lib\libmain.a(printf-stdarg.o)
 .debug_line    0x0000000000000f91      0x2a2 C:/sviluppo/ESP8266/projects/ESPWebFramework/../../SDK/esp_iot_rtos_sdk-master/lib\libmain.a(spi_flash.o)
 .debug_line    0x0000000000001233       0x86 C:/sviluppo/ESP8266/projects/ESPWebFramework/../../SDK/esp_iot_rtos_sdk-master/lib\libmain.a(uart.o)
 .debug_line    0x00000000000012b9     0x1236 C:/sviluppo/ESP8266/projects/ESPWebFramework/../../SDK/esp_iot_rtos_sdk-master/lib\libmain.a(user_interface.o)
 .debug_line    0x00000000000024ef      0x25d C:/sviluppo/ESP8266/projects/ESPWebFramework/../../SDK/esp_iot_rtos_sdk-master/lib\libmain.a(os_cpu_a.o)
 .debug_line    0x000000000000274c       0xe4 C:/sviluppo/ESP8266/projects/ESPWebFramework/../../SDK/esp_iot_rtos_sdk-master/lib\libmain.a(xtensa_context.o)
 .debug_line    0x0000000000002830      0x1a2 C:/sviluppo/ESP8266/projects/ESPWebFramework/../../SDK/esp_iot_rtos_sdk-master/lib\libmain.a(timers.o)
 .debug_line    0x00000000000029d2      0x594 libuser.a(user_main.o)
 .debug_line    0x0000000000002f66      0x46f libuser.a(fdvserial.o)
 .debug_line    0x00000000000033d5      0x1d0 libuser.a(fdvsync.o)
 .debug_line    0x00000000000035a5      0x111 libuser.a(fdvutils.o)
 .debug_line    0x00000000000036b6      0x134 libuser.a(fdvflash.o)
 .debug_line    0x00000000000037ea      0x127 c:/sviluppo/esp8266/sdk/xtensa-lx106-elf/bin/../lib/gcc/xtensa-lx106-elf/4.8.2\libgcc.a(_divsi3.o)
 .debug_line    0x0000000000003911       0xf7 c:/sviluppo/esp8266/sdk/xtensa-lx106-elf/bin/../lib/gcc/xtensa-lx106-elf/4.8.2\libgcc.a(_udivsi3.o)
 .debug_line    0x0000000000003a08       0xc7 c:/sviluppo/esp8266/sdk/xtensa-lx106-elf/bin/../lib/gcc/xtensa-lx106-elf/4.8.2\libgcc.a(_umodsi3.o)
 .debug_line    0x0000000000003acf      0x11d c:/sviluppo/esp8266/sdk/xtensa-lx106-elf/bin/../lib/gcc/xtensa-lx106-elf/4.8.2/../../../../xtensa-lx106-elf/lib\libcirom.a(lib_a-bzero.o)
 .debug_line    0x0000000000003bec      0x169 c:/sviluppo/esp8266/sdk/xtensa-lx106-elf/bin/../lib/gcc/xtensa-lx106-elf/4.8.2/../../../../xtensa-lx106-elf/lib\libcirom.a(lib_a-memcmp.o)
 .debug_line    0x0000000000003d55      0x355 c:/sviluppo/esp8266/sdk/xtensa-lx106-elf/bin/../lib/gcc/xtensa-lx106-elf/4.8.2/../../../../xtensa-lx106-elf/lib\libcirom.a(lib_a-memcpy.o)
 .debug_line    0x00000000000040aa      0x17a c:/sviluppo/esp8266/sdk/xtensa-lx106-elf/bin/../lib/gcc/xtensa-lx106-elf/4.8.2/../../../../xtensa-lx106-elf/lib\libcirom.a(lib_a-memset.o)
 .debug_line    0x0000000000004224      0x284 c:/sviluppo/esp8266/sdk/xtensa-lx106-elf/bin/../lib/gcc/xtensa-lx106-elf/4.8.2/../../../../xtensa-lx106-elf/lib\libcirom.a(lib_a-strcmp.o)
 .debug_line    0x00000000000044a8      0x12c c:/sviluppo/esp8266/sdk/xtensa-lx106-elf/bin/../lib/gcc/xtensa-lx106-elf/4.8.2/../../../../xtensa-lx106-elf/lib\libcirom.a(lib_a-strlen.o)
 .debug_line    0x00000000000045d4      0x219 c:/sviluppo/esp8266/sdk/xtensa-lx106-elf/bin/../lib/gcc/xtensa-lx106-elf/4.8.2/../../../../xtensa-lx106-elf/lib\libcirom.a(lib_a-strncmp.o)
 .debug_line    0x00000000000047ed       0xbc C:/sviluppo/ESP8266/projects/ESPWebFramework/../../SDK/esp_iot_rtos_sdk-master/lib\libhal.a(clock.o)
 .debug_line    0x00000000000048a9       0x89 C:/sviluppo/ESP8266/projects/ESPWebFramework/../../SDK/esp_iot_rtos_sdk-master/lib\libhal.a(int_asm--set_intset.o)
 .debug_line    0x0000000000004932      0x39d C:/sviluppo/ESP8266/projects/ESPWebFramework/../../SDK/esp_iot_rtos_sdk-master/lib\libmain.a(libc.o)
 .debug_line    0x0000000000004ccf       0xe5 c:/sviluppo/esp8266/sdk/xtensa-lx106-elf/bin/../lib/gcc/xtensa-lx106-elf/4.8.2\libgcc.a(_modsi3.o)
 .debug_line    0x0000000000004db4       0x85 c:/sviluppo/esp8266/sdk/xtensa-lx106-elf/bin/../lib/gcc/xtensa-lx106-elf/4.8.2\libgcc.a(_ashrdi3.o)
 .debug_line    0x0000000000004e39      0x488 c:/sviluppo/esp8266/sdk/xtensa-lx106-elf/bin/../lib/gcc/xtensa-lx106-elf/4.8.2\libgcc.a(_addsubsf3.o)
 .debug_line    0x00000000000052c1      0x34a c:/sviluppo/esp8266/sdk/xtensa-lx106-elf/bin/../lib/gcc/xtensa-lx106-elf/4.8.2\libgcc.a(_mulsf3.o)
 .debug_line    0x000000000000560b      0x2e4 c:/sviluppo/esp8266/sdk/xtensa-lx106-elf/bin/../lib/gcc/xtensa-lx106-elf/4.8.2\libgcc.a(_divsf3.o)
 .debug_line    0x00000000000058ef       0xe0 c:/sviluppo/esp8266/sdk/xtensa-lx106-elf/bin/../lib/gcc/xtensa-lx106-elf/4.8.2\libgcc.a(_fixsfsi.o)
 .debug_line    0x00000000000059cf      0x110 c:/sviluppo/esp8266/sdk/xtensa-lx106-elf/bin/../lib/gcc/xtensa-lx106-elf/4.8.2\libgcc.a(_fixunssfsi.o)
 .debug_line    0x0000000000005adf       0xec c:/sviluppo/esp8266/sdk/xtensa-lx106-elf/bin/../lib/gcc/xtensa-lx106-elf/4.8.2\libgcc.a(_floatsisf.o)
 .debug_line    0x0000000000005bcb      0x686 c:/sviluppo/esp8266/sdk/xtensa-lx106-elf/bin/../lib/gcc/xtensa-lx106-elf/4.8.2\libgcc.a(_addsubdf3.o)
 .debug_line    0x0000000000006251      0x5f8 c:/sviluppo/esp8266/sdk/xtensa-lx106-elf/bin/../lib/gcc/xtensa-lx106-elf/4.8.2\libgcc.a(_muldf3.o)
 .debug_line    0x0000000000006849      0x4a0 c:/sviluppo/esp8266/sdk/xtensa-lx106-elf/bin/../lib/gcc/xtensa-lx106-elf/4.8.2\libgcc.a(_divdf3.o)
 .debug_line    0x0000000000006ce9       0xf2 c:/sviluppo/esp8266/sdk/xtensa-lx106-elf/bin/../lib/gcc/xtensa-lx106-elf/4.8.2\libgcc.a(_fixdfsi.o)
 .debug_line    0x0000000000006ddb       0xce c:/sviluppo/esp8266/sdk/xtensa-lx106-elf/bin/../lib/gcc/xtensa-lx106-elf/4.8.2\libgcc.a(_floatsidf.o)
 .debug_line    0x0000000000006ea9      0x1a0 c:/sviluppo/esp8266/sdk/xtensa-lx106-elf/bin/../lib/gcc/xtensa-lx106-elf/4.8.2\libgcc.a(_truncdfsf2.o)
 .debug_line    0x0000000000007049      0x122 c:/sviluppo/esp8266/sdk/xtensa-lx106-elf/bin/../lib/gcc/xtensa-lx106-elf/4.8.2\libgcc.a(_extendsfdf2.o)
 .debug_line    0x000000000000716b       0x96 c:/sviluppo/esp8266/sdk/xtensa-lx106-elf/bin/../lib/gcc/xtensa-lx106-elf/4.8.2\libgcc.a(_muldi3.o)
 .debug_line    0x0000000000007201       0x92 c:/sviluppo/esp8266/sdk/xtensa-lx106-elf/bin/../lib/gcc/xtensa-lx106-elf/4.8.2\libgcc.a(_popcountsi2.o)
 .debug_line    0x0000000000007293      0x1dd c:/sviluppo/esp8266/sdk/xtensa-lx106-elf/bin/../lib/gcc/xtensa-lx106-elf/4.8.2\libgcc.a(_divdi3.o)
 .debug_line    0x0000000000007470      0x200 c:/sviluppo/esp8266/sdk/xtensa-lx106-elf/bin/../lib/gcc/xtensa-lx106-elf/4.8.2\libgcc.a(_umoddi3.o)
 .debug_line    0x0000000000007670      0x103 c:/sviluppo/esp8266/sdk/xtensa-lx106-elf/bin/../lib/gcc/xtensa-lx106-elf/4.8.2\libgcc.a(_umulsidi3.o)
 .debug_line    0x0000000000007773       0x47 c:/sviluppo/esp8266/sdk/xtensa-lx106-elf/bin/../lib/gcc/xtensa-lx106-elf/4.8.2\libgcc.a(_popcount_tab.o)
 .debug_line    0x00000000000077ba      0x29b c:/sviluppo/esp8266/sdk/xtensa-lx106-elf/bin/../lib/gcc/xtensa-lx106-elf/4.8.2/../../../../xtensa-lx106-elf/lib\libcirom.a(lib_a-strncpy.o)

.debug_info     0x0000000000000000    0x11d02
 .debug_info    0x0000000000000000       0x64 C:/sviluppo/ESP8266/projects/ESPWebFramework/../../SDK/esp_iot_rtos_sdk-master/lib\libmain.a(xtensa_vectors.o)
 .debug_info    0x0000000000000064     0x51d4 C:/sviluppo/ESP8266/projects/ESPWebFramework/../../SDK/esp_iot_rtos_sdk-master/lib\libmain.a(app_main.o)
 .debug_info    0x0000000000005238      0x3ce C:/sviluppo/ESP8266/projects/ESPWebFramework/../../SDK/esp_iot_rtos_sdk-master/lib\libmain.a(misc.o)
 .debug_info    0x0000000000005606      0x567 C:/sviluppo/ESP8266/projects/ESPWebFramework/../../SDK/esp_iot_rtos_sdk-master/lib\libmain.a(printf-stdarg.o)
 .debug_info    0x0000000000005b6d      0x610 C:/sviluppo/ESP8266/projects/ESPWebFramework/../../SDK/esp_iot_rtos_sdk-master/lib\libmain.a(spi_flash.o)
 .debug_info    0x000000000000617d      0x1a7 C:/sviluppo/ESP8266/projects/ESPWebFramework/../../SDK/esp_iot_rtos_sdk-master/lib\libmain.a(uart.o)
 .debug_info    0x0000000000006324     0x5fae C:/sviluppo/ESP8266/projects/ESPWebFramework/../../SDK/esp_iot_rtos_sdk-master/lib\libmain.a(user_interface.o)
 .debug_info    0x000000000000c2d2       0x62 C:/sviluppo/ESP8266/projects/ESPWebFramework/../../SDK/esp_iot_rtos_sdk-master/lib\libmain.a(os_cpu_a.o)
 .debug_info    0x000000000000c334       0x68 C:/sviluppo/ESP8266/projects/ESPWebFramework/../../SDK/esp_iot_rtos_sdk-master/lib\libmain.a(xtensa_context.o)
 .debug_info    0x000000000000c39c      0x529 C:/sviluppo/ESP8266/projects/ESPWebFramework/../../SDK/esp_iot_rtos_sdk-master/lib\libmain.a(timers.o)
 .debug_info    0x000000000000c8c5     0x1853 libuser.a(user_main.o)
 .debug_info    0x000000000000e118      0xc75 libuser.a(fdvserial.o)
 .debug_info    0x000000000000ed8d      0x220 libuser.a(fdvsync.o)
 .debug_info    0x000000000000efad      0x1f1 libuser.a(fdvutils.o)
 .debug_info    0x000000000000f19e      0x2bc libuser.a(fdvflash.o)
 .debug_info    0x000000000000f45a       0x9a c:/sviluppo/esp8266/sdk/xtensa-lx106-elf/bin/../lib/gcc/xtensa-lx106-elf/4.8.2\libgcc.a(_divsi3.o)
 .debug_info    0x000000000000f4f4       0x9a c:/sviluppo/esp8266/sdk/xtensa-lx106-elf/bin/../lib/gcc/xtensa-lx106-elf/4.8.2\libgcc.a(_udivsi3.o)
 .debug_info    0x000000000000f58e       0x9a c:/sviluppo/esp8266/sdk/xtensa-lx106-elf/bin/../lib/gcc/xtensa-lx106-elf/4.8.2\libgcc.a(_umodsi3.o)
 .debug_info    0x000000000000f628       0xca c:/sviluppo/esp8266/sdk/xtensa-lx106-elf/bin/../lib/gcc/xtensa-lx106-elf/4.8.2/../../../../xtensa-lx106-elf/lib\libcirom.a(lib_a-bzero.o)
 .debug_info    0x000000000000f6f2      0x113 c:/sviluppo/esp8266/sdk/xtensa-lx106-elf/bin/../lib/gcc/xtensa-lx106-elf/4.8.2/../../../../xtensa-lx106-elf/lib\libcirom.a(lib_a-memcmp.o)
 .debug_info    0x000000000000f805       0xb8 c:/sviluppo/esp8266/sdk/xtensa-lx106-elf/bin/../lib/gcc/xtensa-lx106-elf/4.8.2/../../../../xtensa-lx106-elf/lib\libcirom.a(lib_a-memcpy.o)
 .debug_info    0x000000000000f8bd       0xb8 c:/sviluppo/esp8266/sdk/xtensa-lx106-elf/bin/../lib/gcc/xtensa-lx106-elf/4.8.2/../../../../xtensa-lx106-elf/lib\libcirom.a(lib_a-memset.o)
 .debug_info    0x000000000000f975       0xb8 c:/sviluppo/esp8266/sdk/xtensa-lx106-elf/bin/../lib/gcc/xtensa-lx106-elf/4.8.2/../../../../xtensa-lx106-elf/lib\libcirom.a(lib_a-strcmp.o)
 .debug_info    0x000000000000fa2d       0xb8 c:/sviluppo/esp8266/sdk/xtensa-lx106-elf/bin/../lib/gcc/xtensa-lx106-elf/4.8.2/../../../../xtensa-lx106-elf/lib\libcirom.a(lib_a-strlen.o)
 .debug_info    0x000000000000fae5       0xf5 c:/sviluppo/esp8266/sdk/xtensa-lx106-elf/bin/../lib/gcc/xtensa-lx106-elf/4.8.2/../../../../xtensa-lx106-elf/lib\libcirom.a(lib_a-strncmp.o)
 .debug_info    0x000000000000fbda       0xc0 C:/sviluppo/ESP8266/projects/ESPWebFramework/../../SDK/esp_iot_rtos_sdk-master/lib\libhal.a(clock.o)
 .debug_info    0x000000000000fc9a       0xc2 C:/sviluppo/ESP8266/projects/ESPWebFramework/../../SDK/esp_iot_rtos_sdk-master/lib\libhal.a(int_asm--set_intset.o)
 .debug_info    0x000000000000fd5c      0x5f9 C:/sviluppo/ESP8266/projects/ESPWebFramework/../../SDK/esp_iot_rtos_sdk-master/lib\libmain.a(libc.o)
 .debug_info    0x0000000000010355       0x9a c:/sviluppo/esp8266/sdk/xtensa-lx106-elf/bin/../lib/gcc/xtensa-lx106-elf/4.8.2\libgcc.a(_modsi3.o)
 .debug_info    0x00000000000103ef       0x9a c:/sviluppo/esp8266/sdk/xtensa-lx106-elf/bin/../lib/gcc/xtensa-lx106-elf/4.8.2\libgcc.a(_ashrdi3.o)
 .debug_info    0x0000000000010489       0x9b c:/sviluppo/esp8266/sdk/xtensa-lx106-elf/bin/../lib/gcc/xtensa-lx106-elf/4.8.2\libgcc.a(_addsubsf3.o)
 .debug_info    0x0000000000010524       0x9b c:/sviluppo/esp8266/sdk/xtensa-lx106-elf/bin/../lib/gcc/xtensa-lx106-elf/4.8.2\libgcc.a(_mulsf3.o)
 .debug_info    0x00000000000105bf       0x9b c:/sviluppo/esp8266/sdk/xtensa-lx106-elf/bin/../lib/gcc/xtensa-lx106-elf/4.8.2\libgcc.a(_divsf3.o)
 .debug_info    0x000000000001065a       0x9b c:/sviluppo/esp8266/sdk/xtensa-lx106-elf/bin/../lib/gcc/xtensa-lx106-elf/4.8.2\libgcc.a(_fixsfsi.o)
 .debug_info    0x00000000000106f5       0x9b c:/sviluppo/esp8266/sdk/xtensa-lx106-elf/bin/../lib/gcc/xtensa-lx106-elf/4.8.2\libgcc.a(_fixunssfsi.o)
 .debug_info    0x0000000000010790       0x9b c:/sviluppo/esp8266/sdk/xtensa-lx106-elf/bin/../lib/gcc/xtensa-lx106-elf/4.8.2\libgcc.a(_floatsisf.o)
 .debug_info    0x000000000001082b       0x9b c:/sviluppo/esp8266/sdk/xtensa-lx106-elf/bin/../lib/gcc/xtensa-lx106-elf/4.8.2\libgcc.a(_addsubdf3.o)
 .debug_info    0x00000000000108c6       0x9b c:/sviluppo/esp8266/sdk/xtensa-lx106-elf/bin/../lib/gcc/xtensa-lx106-elf/4.8.2\libgcc.a(_muldf3.o)
 .debug_info    0x0000000000010961       0x9b c:/sviluppo/esp8266/sdk/xtensa-lx106-elf/bin/../lib/gcc/xtensa-lx106-elf/4.8.2\libgcc.a(_divdf3.o)
 .debug_info    0x00000000000109fc       0x9b c:/sviluppo/esp8266/sdk/xtensa-lx106-elf/bin/../lib/gcc/xtensa-lx106-elf/4.8.2\libgcc.a(_fixdfsi.o)
 .debug_info    0x0000000000010a97       0x9b c:/sviluppo/esp8266/sdk/xtensa-lx106-elf/bin/../lib/gcc/xtensa-lx106-elf/4.8.2\libgcc.a(_floatsidf.o)
 .debug_info    0x0000000000010b32       0x9b c:/sviluppo/esp8266/sdk/xtensa-lx106-elf/bin/../lib/gcc/xtensa-lx106-elf/4.8.2\libgcc.a(_truncdfsf2.o)
 .debug_info    0x0000000000010bcd       0x9b c:/sviluppo/esp8266/sdk/xtensa-lx106-elf/bin/../lib/gcc/xtensa-lx106-elf/4.8.2\libgcc.a(_extendsfdf2.o)
 .debug_info    0x0000000000010c68      0x174 c:/sviluppo/esp8266/sdk/xtensa-lx106-elf/bin/../lib/gcc/xtensa-lx106-elf/4.8.2\libgcc.a(_muldi3.o)
 .debug_info    0x0000000000010ddc       0xff c:/sviluppo/esp8266/sdk/xtensa-lx106-elf/bin/../lib/gcc/xtensa-lx106-elf/4.8.2\libgcc.a(_popcountsi2.o)
 .debug_info    0x0000000000010edb      0x60c c:/sviluppo/esp8266/sdk/xtensa-lx106-elf/bin/../lib/gcc/xtensa-lx106-elf/4.8.2\libgcc.a(_divdi3.o)
 .debug_info    0x00000000000114e7      0x61d c:/sviluppo/esp8266/sdk/xtensa-lx106-elf/bin/../lib/gcc/xtensa-lx106-elf/4.8.2\libgcc.a(_umoddi3.o)
 .debug_info    0x0000000000011b04       0x9a c:/sviluppo/esp8266/sdk/xtensa-lx106-elf/bin/../lib/gcc/xtensa-lx106-elf/4.8.2\libgcc.a(_umulsidi3.o)
 .debug_info    0x0000000000011b9e       0xab c:/sviluppo/esp8266/sdk/xtensa-lx106-elf/bin/../lib/gcc/xtensa-lx106-elf/4.8.2\libgcc.a(_popcount_tab.o)
 .debug_info    0x0000000000011c49       0xb9 c:/sviluppo/esp8266/sdk/xtensa-lx106-elf/bin/../lib/gcc/xtensa-lx106-elf/4.8.2/../../../../xtensa-lx106-elf/lib\libcirom.a(lib_a-strncpy.o)

.debug_abbrev   0x0000000000000000     0x213d
 .debug_abbrev  0x0000000000000000       0x12 C:/sviluppo/ESP8266/projects/ESPWebFramework/../../SDK/esp_iot_rtos_sdk-master/lib\libmain.a(xtensa_vectors.o)
 .debug_abbrev  0x0000000000000012      0x2a1 C:/sviluppo/ESP8266/projects/ESPWebFramework/../../SDK/esp_iot_rtos_sdk-master/lib\libmain.a(app_main.o)
 .debug_abbrev  0x00000000000002b3       0xe9 C:/sviluppo/ESP8266/projects/ESPWebFramework/../../SDK/esp_iot_rtos_sdk-master/lib\libmain.a(misc.o)
 .debug_abbrev  0x000000000000039c      0x142 C:/sviluppo/ESP8266/projects/ESPWebFramework/../../SDK/esp_iot_rtos_sdk-master/lib\libmain.a(printf-stdarg.o)
 .debug_abbrev  0x00000000000004de       0xea C:/sviluppo/ESP8266/projects/ESPWebFramework/../../SDK/esp_iot_rtos_sdk-master/lib\libmain.a(spi_flash.o)
 .debug_abbrev  0x00000000000005c8       0x82 C:/sviluppo/ESP8266/projects/ESPWebFramework/../../SDK/esp_iot_rtos_sdk-master/lib\libmain.a(uart.o)
 .debug_abbrev  0x000000000000064a      0x319 C:/sviluppo/ESP8266/projects/ESPWebFramework/../../SDK/esp_iot_rtos_sdk-master/lib\libmain.a(user_interface.o)
 .debug_abbrev  0x0000000000000963       0x14 C:/sviluppo/ESP8266/projects/ESPWebFramework/../../SDK/esp_iot_rtos_sdk-master/lib\libmain.a(os_cpu_a.o)
 .debug_abbrev  0x0000000000000977       0x14 C:/sviluppo/ESP8266/projects/ESPWebFramework/../../SDK/esp_iot_rtos_sdk-master/lib\libmain.a(xtensa_context.o)
 .debug_abbrev  0x000000000000098b       0xce C:/sviluppo/ESP8266/projects/ESPWebFramework/../../SDK/esp_iot_rtos_sdk-master/lib\libmain.a(timers.o)
 .debug_abbrev  0x0000000000000a59      0x59f libuser.a(user_main.o)
 .debug_abbrev  0x0000000000000ff8      0x3ef libuser.a(fdvserial.o)
 .debug_abbrev  0x00000000000013e7       0xdd libuser.a(fdvsync.o)
 .debug_abbrev  0x00000000000014c4      0x118 libuser.a(fdvutils.o)
 .debug_abbrev  0x00000000000015dc      0x13f libuser.a(fdvflash.o)
 .debug_abbrev  0x000000000000171b       0x14 c:/sviluppo/esp8266/sdk/xtensa-lx106-elf/bin/../lib/gcc/xtensa-lx106-elf/4.8.2\libgcc.a(_divsi3.o)
 .debug_abbrev  0x000000000000172f       0x14 c:/sviluppo/esp8266/sdk/xtensa-lx106-elf/bin/../lib/gcc/xtensa-lx106-elf/4.8.2\libgcc.a(_udivsi3.o)
 .debug_abbrev  0x0000000000001743       0x14 c:/sviluppo/esp8266/sdk/xtensa-lx106-elf/bin/../lib/gcc/xtensa-lx106-elf/4.8.2\libgcc.a(_umodsi3.o)
 .debug_abbrev  0x0000000000001757       0x8c c:/sviluppo/esp8266/sdk/xtensa-lx106-elf/bin/../lib/gcc/xtensa-lx106-elf/4.8.2/../../../../xtensa-lx106-elf/lib\libcirom.a(lib_a-bzero.o)
 .debug_abbrev  0x00000000000017e3       0x7f c:/sviluppo/esp8266/sdk/xtensa-lx106-elf/bin/../lib/gcc/xtensa-lx106-elf/4.8.2/../../../../xtensa-lx106-elf/lib\libcirom.a(lib_a-memcmp.o)
 .debug_abbrev  0x0000000000001862       0x14 c:/sviluppo/esp8266/sdk/xtensa-lx106-elf/bin/../lib/gcc/xtensa-lx106-elf/4.8.2/../../../../xtensa-lx106-elf/lib\libcirom.a(lib_a-memcpy.o)
 .debug_abbrev  0x0000000000001876       0x14 c:/sviluppo/esp8266/sdk/xtensa-lx106-elf/bin/../lib/gcc/xtensa-lx106-elf/4.8.2/../../../../xtensa-lx106-elf/lib\libcirom.a(lib_a-memset.o)
 .debug_abbrev  0x000000000000188a       0x14 c:/sviluppo/esp8266/sdk/xtensa-lx106-elf/bin/../lib/gcc/xtensa-lx106-elf/4.8.2/../../../../xtensa-lx106-elf/lib\libcirom.a(lib_a-strcmp.o)
 .debug_abbrev  0x000000000000189e       0x14 c:/sviluppo/esp8266/sdk/xtensa-lx106-elf/bin/../lib/gcc/xtensa-lx106-elf/4.8.2/../../../../xtensa-lx106-elf/lib\libcirom.a(lib_a-strlen.o)
 .debug_abbrev  0x00000000000018b2       0x81 c:/sviluppo/esp8266/sdk/xtensa-lx106-elf/bin/../lib/gcc/xtensa-lx106-elf/4.8.2/../../../../xtensa-lx106-elf/lib\libcirom.a(lib_a-strncmp.o)
 .debug_abbrev  0x0000000000001933       0x14 C:/sviluppo/ESP8266/projects/ESPWebFramework/../../SDK/esp_iot_rtos_sdk-master/lib\libhal.a(clock.o)
 .debug_abbrev  0x0000000000001947       0x14 C:/sviluppo/ESP8266/projects/ESPWebFramework/../../SDK/esp_iot_rtos_sdk-master/lib\libhal.a(int_asm--set_intset.o)
 .debug_abbrev  0x000000000000195b      0x153 C:/sviluppo/ESP8266/projects/ESPWebFramework/../../SDK/esp_iot_rtos_sdk-master/lib\libmain.a(libc.o)
 .debug_abbrev  0x0000000000001aae       0x14 c:/sviluppo/esp8266/sdk/xtensa-lx106-elf/bin/../lib/gcc/xtensa-lx106-elf/4.8.2\libgcc.a(_modsi3.o)
 .debug_abbrev  0x0000000000001ac2       0x14 c:/sviluppo/esp8266/sdk/xtensa-lx106-elf/bin/../lib/gcc/xtensa-lx106-elf/4.8.2\libgcc.a(_ashrdi3.o)
 .debug_abbrev  0x0000000000001ad6       0x14 c:/sviluppo/esp8266/sdk/xtensa-lx106-elf/bin/../lib/gcc/xtensa-lx106-elf/4.8.2\libgcc.a(_addsubsf3.o)
 .debug_abbrev  0x0000000000001aea       0x14 c:/sviluppo/esp8266/sdk/xtensa-lx106-elf/bin/../lib/gcc/xtensa-lx106-elf/4.8.2\libgcc.a(_mulsf3.o)
 .debug_abbrev  0x0000000000001afe       0x14 c:/sviluppo/esp8266/sdk/xtensa-lx106-elf/bin/../lib/gcc/xtensa-lx106-elf/4.8.2\libgcc.a(_divsf3.o)
 .debug_abbrev  0x0000000000001b12       0x14 c:/sviluppo/esp8266/sdk/xtensa-lx106-elf/bin/../lib/gcc/xtensa-lx106-elf/4.8.2\libgcc.a(_fixsfsi.o)
 .debug_abbrev  0x0000000000001b26       0x14 c:/sviluppo/esp8266/sdk/xtensa-lx106-elf/bin/../lib/gcc/xtensa-lx106-elf/4.8.2\libgcc.a(_fixunssfsi.o)
 .debug_abbrev  0x0000000000001b3a       0x14 c:/sviluppo/esp8266/sdk/xtensa-lx106-elf/bin/../lib/gcc/xtensa-lx106-elf/4.8.2\libgcc.a(_floatsisf.o)
 .debug_abbrev  0x0000000000001b4e       0x14 c:/sviluppo/esp8266/sdk/xtensa-lx106-elf/bin/../lib/gcc/xtensa-lx106-elf/4.8.2\libgcc.a(_addsubdf3.o)
 .debug_abbrev  0x0000000000001b62       0x14 c:/sviluppo/esp8266/sdk/xtensa-lx106-elf/bin/../lib/gcc/xtensa-lx106-elf/4.8.2\libgcc.a(_muldf3.o)
 .debug_abbrev  0x0000000000001b76       0x14 c:/sviluppo/esp8266/sdk/xtensa-lx106-elf/bin/../lib/gcc/xtensa-lx106-elf/4.8.2\libgcc.a(_divdf3.o)
 .debug_abbrev  0x0000000000001b8a       0x14 c:/sviluppo/esp8266/sdk/xtensa-lx106-elf/bin/../lib/gcc/xtensa-lx106-elf/4.8.2\libgcc.a(_fixdfsi.o)
 .debug_abbrev  0x0000000000001b9e       0x14 c:/sviluppo/esp8266/sdk/xtensa-lx106-elf/bin/../lib/gcc/xtensa-lx106-elf/4.8.2\libgcc.a(_floatsidf.o)
 .debug_abbrev  0x0000000000001bb2       0x14 c:/sviluppo/esp8266/sdk/xtensa-lx106-elf/bin/../lib/gcc/xtensa-lx106-elf/4.8.2\libgcc.a(_truncdfsf2.o)
 .debug_abbrev  0x0000000000001bc6       0x14 c:/sviluppo/esp8266/sdk/xtensa-lx106-elf/bin/../lib/gcc/xtensa-lx106-elf/4.8.2\libgcc.a(_extendsfdf2.o)
 .debug_abbrev  0x0000000000001bda       0xfd c:/sviluppo/esp8266/sdk/xtensa-lx106-elf/bin/../lib/gcc/xtensa-lx106-elf/4.8.2\libgcc.a(_muldi3.o)
 .debug_abbrev  0x0000000000001cd7       0x9b c:/sviluppo/esp8266/sdk/xtensa-lx106-elf/bin/../lib/gcc/xtensa-lx106-elf/4.8.2\libgcc.a(_popcountsi2.o)
 .debug_abbrev  0x0000000000001d72      0x1a3 c:/sviluppo/esp8266/sdk/xtensa-lx106-elf/bin/../lib/gcc/xtensa-lx106-elf/4.8.2\libgcc.a(_divdi3.o)
 .debug_abbrev  0x0000000000001f15      0x1a3 c:/sviluppo/esp8266/sdk/xtensa-lx106-elf/bin/../lib/gcc/xtensa-lx106-elf/4.8.2\libgcc.a(_umoddi3.o)
 .debug_abbrev  0x00000000000020b8       0x14 c:/sviluppo/esp8266/sdk/xtensa-lx106-elf/bin/../lib/gcc/xtensa-lx106-elf/4.8.2\libgcc.a(_umulsidi3.o)
 .debug_abbrev  0x00000000000020cc       0x5d c:/sviluppo/esp8266/sdk/xtensa-lx106-elf/bin/../lib/gcc/xtensa-lx106-elf/4.8.2\libgcc.a(_popcount_tab.o)
 .debug_abbrev  0x0000000000002129       0x14 c:/sviluppo/esp8266/sdk/xtensa-lx106-elf/bin/../lib/gcc/xtensa-lx106-elf/4.8.2/../../../../xtensa-lx106-elf/lib\libcirom.a(lib_a-strncpy.o)

.debug_aranges  0x0000000000000000      0x7a0
 .debug_aranges
                0x0000000000000000       0x50 C:/sviluppo/ESP8266/projects/ESPWebFramework/../../SDK/esp_iot_rtos_sdk-master/lib\libmain.a(xtensa_vectors.o)
 .debug_aranges
                0x0000000000000050       0x58 C:/sviluppo/ESP8266/projects/ESPWebFramework/../../SDK/esp_iot_rtos_sdk-master/lib\libmain.a(app_main.o)
 .debug_aranges
                0x00000000000000a8       0x30 C:/sviluppo/ESP8266/projects/ESPWebFramework/../../SDK/esp_iot_rtos_sdk-master/lib\libmain.a(misc.o)
 .debug_aranges
                0x00000000000000d8       0x20 C:/sviluppo/ESP8266/projects/ESPWebFramework/../../SDK/esp_iot_rtos_sdk-master/lib\libmain.a(printf-stdarg.o)
 .debug_aranges
                0x00000000000000f8       0x20 C:/sviluppo/ESP8266/projects/ESPWebFramework/../../SDK/esp_iot_rtos_sdk-master/lib\libmain.a(spi_flash.o)
 .debug_aranges
                0x0000000000000118       0x20 C:/sviluppo/ESP8266/projects/ESPWebFramework/../../SDK/esp_iot_rtos_sdk-master/lib\libmain.a(uart.o)
 .debug_aranges
                0x0000000000000138       0x40 C:/sviluppo/ESP8266/projects/ESPWebFramework/../../SDK/esp_iot_rtos_sdk-master/lib\libmain.a(user_interface.o)
 .debug_aranges
                0x0000000000000178       0x20 C:/sviluppo/ESP8266/projects/ESPWebFramework/../../SDK/esp_iot_rtos_sdk-master/lib\libmain.a(os_cpu_a.o)
 .debug_aranges
                0x0000000000000198       0x20 C:/sviluppo/ESP8266/projects/ESPWebFramework/../../SDK/esp_iot_rtos_sdk-master/lib\libmain.a(xtensa_context.o)
 .debug_aranges
                0x00000000000001b8       0x20 C:/sviluppo/ESP8266/projects/ESPWebFramework/../../SDK/esp_iot_rtos_sdk-master/lib\libmain.a(timers.o)
 .debug_aranges
                0x00000000000001d8       0x38 libuser.a(user_main.o)
 .debug_aranges
                0x0000000000000210       0x70 libuser.a(fdvserial.o)
 .debug_aranges
                0x0000000000000280       0x50 libuser.a(fdvsync.o)
 .debug_aranges
                0x00000000000002d0       0x50 libuser.a(fdvutils.o)
 .debug_aranges
                0x0000000000000320       0x18 libuser.a(fdvflash.o)
 .debug_aranges
                0x0000000000000338       0x20 c:/sviluppo/esp8266/sdk/xtensa-lx106-elf/bin/../lib/gcc/xtensa-lx106-elf/4.8.2\libgcc.a(_divsi3.o)
 .debug_aranges
                0x0000000000000358       0x20 c:/sviluppo/esp8266/sdk/xtensa-lx106-elf/bin/../lib/gcc/xtensa-lx106-elf/4.8.2\libgcc.a(_udivsi3.o)
 .debug_aranges
                0x0000000000000378       0x20 c:/sviluppo/esp8266/sdk/xtensa-lx106-elf/bin/../lib/gcc/xtensa-lx106-elf/4.8.2\libgcc.a(_umodsi3.o)
 .debug_aranges
                0x0000000000000398       0x20 c:/sviluppo/esp8266/sdk/xtensa-lx106-elf/bin/../lib/gcc/xtensa-lx106-elf/4.8.2/../../../../xtensa-lx106-elf/lib\libcirom.a(lib_a-bzero.o)
 .debug_aranges
                0x00000000000003b8       0x20 c:/sviluppo/esp8266/sdk/xtensa-lx106-elf/bin/../lib/gcc/xtensa-lx106-elf/4.8.2/../../../../xtensa-lx106-elf/lib\libcirom.a(lib_a-memcmp.o)
 .debug_aranges
                0x00000000000003d8       0x20 c:/sviluppo/esp8266/sdk/xtensa-lx106-elf/bin/../lib/gcc/xtensa-lx106-elf/4.8.2/../../../../xtensa-lx106-elf/lib\libcirom.a(lib_a-memcpy.o)
 .debug_aranges
                0x00000000000003f8       0x20 c:/sviluppo/esp8266/sdk/xtensa-lx106-elf/bin/../lib/gcc/xtensa-lx106-elf/4.8.2/../../../../xtensa-lx106-elf/lib\libcirom.a(lib_a-memset.o)
 .debug_aranges
                0x0000000000000418       0x20 c:/sviluppo/esp8266/sdk/xtensa-lx106-elf/bin/../lib/gcc/xtensa-lx106-elf/4.8.2/../../../../xtensa-lx106-elf/lib\libcirom.a(lib_a-strcmp.o)
 .debug_aranges
                0x0000000000000438       0x20 c:/sviluppo/esp8266/sdk/xtensa-lx106-elf/bin/../lib/gcc/xtensa-lx106-elf/4.8.2/../../../../xtensa-lx106-elf/lib\libcirom.a(lib_a-strlen.o)
 .debug_aranges
                0x0000000000000458       0x20 c:/sviluppo/esp8266/sdk/xtensa-lx106-elf/bin/../lib/gcc/xtensa-lx106-elf/4.8.2/../../../../xtensa-lx106-elf/lib\libcirom.a(lib_a-strncmp.o)
 .debug_aranges
                0x0000000000000478       0x20 C:/sviluppo/ESP8266/projects/ESPWebFramework/../../SDK/esp_iot_rtos_sdk-master/lib\libhal.a(clock.o)
 .debug_aranges
                0x0000000000000498       0x20 C:/sviluppo/ESP8266/projects/ESPWebFramework/../../SDK/esp_iot_rtos_sdk-master/lib\libhal.a(int_asm--set_intset.o)
 .debug_aranges
                0x00000000000004b8       0x30 C:/sviluppo/ESP8266/projects/ESPWebFramework/../../SDK/esp_iot_rtos_sdk-master/lib\libmain.a(libc.o)
 .debug_aranges
                0x00000000000004e8       0x20 c:/sviluppo/esp8266/sdk/xtensa-lx106-elf/bin/../lib/gcc/xtensa-lx106-elf/4.8.2\libgcc.a(_modsi3.o)
 .debug_aranges
                0x0000000000000508       0x20 c:/sviluppo/esp8266/sdk/xtensa-lx106-elf/bin/../lib/gcc/xtensa-lx106-elf/4.8.2\libgcc.a(_ashrdi3.o)
 .debug_aranges
                0x0000000000000528       0x20 c:/sviluppo/esp8266/sdk/xtensa-lx106-elf/bin/../lib/gcc/xtensa-lx106-elf/4.8.2\libgcc.a(_addsubsf3.o)
 .debug_aranges
                0x0000000000000548       0x20 c:/sviluppo/esp8266/sdk/xtensa-lx106-elf/bin/../lib/gcc/xtensa-lx106-elf/4.8.2\libgcc.a(_mulsf3.o)
 .debug_aranges
                0x0000000000000568       0x20 c:/sviluppo/esp8266/sdk/xtensa-lx106-elf/bin/../lib/gcc/xtensa-lx106-elf/4.8.2\libgcc.a(_divsf3.o)
 .debug_aranges
                0x0000000000000588       0x20 c:/sviluppo/esp8266/sdk/xtensa-lx106-elf/bin/../lib/gcc/xtensa-lx106-elf/4.8.2\libgcc.a(_fixsfsi.o)
 .debug_aranges
                0x00000000000005a8       0x20 c:/sviluppo/esp8266/sdk/xtensa-lx106-elf/bin/../lib/gcc/xtensa-lx106-elf/4.8.2\libgcc.a(_fixunssfsi.o)
 .debug_aranges
                0x00000000000005c8       0x20 c:/sviluppo/esp8266/sdk/xtensa-lx106-elf/bin/../lib/gcc/xtensa-lx106-elf/4.8.2\libgcc.a(_floatsisf.o)
 .debug_aranges
                0x00000000000005e8       0x20 c:/sviluppo/esp8266/sdk/xtensa-lx106-elf/bin/../lib/gcc/xtensa-lx106-elf/4.8.2\libgcc.a(_addsubdf3.o)
 .debug_aranges
                0x0000000000000608       0x20 c:/sviluppo/esp8266/sdk/xtensa-lx106-elf/bin/../lib/gcc/xtensa-lx106-elf/4.8.2\libgcc.a(_muldf3.o)
 .debug_aranges
                0x0000000000000628       0x20 c:/sviluppo/esp8266/sdk/xtensa-lx106-elf/bin/../lib/gcc/xtensa-lx106-elf/4.8.2\libgcc.a(_divdf3.o)
 .debug_aranges
                0x0000000000000648       0x20 c:/sviluppo/esp8266/sdk/xtensa-lx106-elf/bin/../lib/gcc/xtensa-lx106-elf/4.8.2\libgcc.a(_fixdfsi.o)
 .debug_aranges
                0x0000000000000668       0x20 c:/sviluppo/esp8266/sdk/xtensa-lx106-elf/bin/../lib/gcc/xtensa-lx106-elf/4.8.2\libgcc.a(_floatsidf.o)
 .debug_aranges
                0x0000000000000688       0x20 c:/sviluppo/esp8266/sdk/xtensa-lx106-elf/bin/../lib/gcc/xtensa-lx106-elf/4.8.2\libgcc.a(_truncdfsf2.o)
 .debug_aranges
                0x00000000000006a8       0x20 c:/sviluppo/esp8266/sdk/xtensa-lx106-elf/bin/../lib/gcc/xtensa-lx106-elf/4.8.2\libgcc.a(_extendsfdf2.o)
 .debug_aranges
                0x00000000000006c8       0x20 c:/sviluppo/esp8266/sdk/xtensa-lx106-elf/bin/../lib/gcc/xtensa-lx106-elf/4.8.2\libgcc.a(_muldi3.o)
 .debug_aranges
                0x00000000000006e8       0x20 c:/sviluppo/esp8266/sdk/xtensa-lx106-elf/bin/../lib/gcc/xtensa-lx106-elf/4.8.2\libgcc.a(_popcountsi2.o)
 .debug_aranges
                0x0000000000000708       0x20 c:/sviluppo/esp8266/sdk/xtensa-lx106-elf/bin/../lib/gcc/xtensa-lx106-elf/4.8.2\libgcc.a(_divdi3.o)
 .debug_aranges
                0x0000000000000728       0x20 c:/sviluppo/esp8266/sdk/xtensa-lx106-elf/bin/../lib/gcc/xtensa-lx106-elf/4.8.2\libgcc.a(_umoddi3.o)
 .debug_aranges
                0x0000000000000748       0x20 c:/sviluppo/esp8266/sdk/xtensa-lx106-elf/bin/../lib/gcc/xtensa-lx106-elf/4.8.2\libgcc.a(_umulsidi3.o)
 .debug_aranges
                0x0000000000000768       0x18 c:/sviluppo/esp8266/sdk/xtensa-lx106-elf/bin/../lib/gcc/xtensa-lx106-elf/4.8.2\libgcc.a(_popcount_tab.o)
 .debug_aranges
                0x0000000000000780       0x20 c:/sviluppo/esp8266/sdk/xtensa-lx106-elf/bin/../lib/gcc/xtensa-lx106-elf/4.8.2/../../../../xtensa-lx106-elf/lib\libcirom.a(lib_a-strncpy.o)

.debug_ranges   0x0000000000000000      0x628
 .debug_ranges  0x0000000000000000       0x48 C:/sviluppo/ESP8266/projects/ESPWebFramework/../../SDK/esp_iot_rtos_sdk-master/lib\libmain.a(xtensa_vectors.o)
 .debug_ranges  0x0000000000000048      0x2f0 libuser.a(user_main.o)
 .debug_ranges  0x0000000000000338      0x168 libuser.a(fdvserial.o)
 .debug_ranges  0x00000000000004a0       0x40 libuser.a(fdvsync.o)
 .debug_ranges  0x00000000000004e0       0x40 libuser.a(fdvutils.o)
 .debug_ranges  0x0000000000000520       0x10 c:/sviluppo/esp8266/sdk/xtensa-lx106-elf/bin/../lib/gcc/xtensa-lx106-elf/4.8.2/../../../../xtensa-lx106-elf/lib\libcirom.a(lib_a-bzero.o)
 .debug_ranges  0x0000000000000530       0x60 c:/sviluppo/esp8266/sdk/xtensa-lx106-elf/bin/../lib/gcc/xtensa-lx106-elf/4.8.2\libgcc.a(_divdi3.o)
 .debug_ranges  0x0000000000000590       0x98 c:/sviluppo/esp8266/sdk/xtensa-lx106-elf/bin/../lib/gcc/xtensa-lx106-elf/4.8.2\libgcc.a(_umoddi3.o)

.debug_pubnames
                0x0000000000000000      0xa80
 .debug_pubnames
                0x0000000000000000      0x158 C:/sviluppo/ESP8266/projects/ESPWebFramework/../../SDK/esp_iot_rtos_sdk-master/lib\libmain.a(app_main.o)
 .debug_pubnames
                0x0000000000000158       0xb0 C:/sviluppo/ESP8266/projects/ESPWebFramework/../../SDK/esp_iot_rtos_sdk-master/lib\libmain.a(misc.o)
 .debug_pubnames
                0x0000000000000208       0x57 C:/sviluppo/ESP8266/projects/ESPWebFramework/../../SDK/esp_iot_rtos_sdk-master/lib\libmain.a(printf-stdarg.o)
 .debug_pubnames
                0x000000000000025f       0xb8 C:/sviluppo/ESP8266/projects/ESPWebFramework/../../SDK/esp_iot_rtos_sdk-master/lib\libmain.a(spi_flash.o)
 .debug_pubnames
                0x0000000000000317       0x49 C:/sviluppo/ESP8266/projects/ESPWebFramework/../../SDK/esp_iot_rtos_sdk-master/lib\libmain.a(uart.o)
 .debug_pubnames
                0x0000000000000360      0x615 C:/sviluppo/ESP8266/projects/ESPWebFramework/../../SDK/esp_iot_rtos_sdk-master/lib\libmain.a(user_interface.o)
 .debug_pubnames
                0x0000000000000975       0x4a C:/sviluppo/ESP8266/projects/ESPWebFramework/../../SDK/esp_iot_rtos_sdk-master/lib\libmain.a(timers.o)
 .debug_pubnames
                0x00000000000009bf       0xc1 C:/sviluppo/ESP8266/projects/ESPWebFramework/../../SDK/esp_iot_rtos_sdk-master/lib\libmain.a(libc.o)

.debug_frame    0x0000000000000000      0x488
 .debug_frame   0x0000000000000000       0x88 libuser.a(user_main.o)
 .debug_frame   0x0000000000000088      0x150 libuser.a(fdvserial.o)
 .debug_frame   0x00000000000001d8       0xe0 libuser.a(fdvsync.o)
 .debug_frame   0x00000000000002b8       0xc0 libuser.a(fdvutils.o)
 .debug_frame   0x0000000000000378       0x20 c:/sviluppo/esp8266/sdk/xtensa-lx106-elf/bin/../lib/gcc/xtensa-lx106-elf/4.8.2/../../../../xtensa-lx106-elf/lib\libcirom.a(lib_a-bzero.o)
 .debug_frame   0x0000000000000398       0x20 c:/sviluppo/esp8266/sdk/xtensa-lx106-elf/bin/../lib/gcc/xtensa-lx106-elf/4.8.2/../../../../xtensa-lx106-elf/lib\libcirom.a(lib_a-memcmp.o)
 .debug_frame   0x00000000000003b8       0x20 c:/sviluppo/esp8266/sdk/xtensa-lx106-elf/bin/../lib/gcc/xtensa-lx106-elf/4.8.2/../../../../xtensa-lx106-elf/lib\libcirom.a(lib_a-strncmp.o)
 .debug_frame   0x00000000000003d8       0x30 c:/sviluppo/esp8266/sdk/xtensa-lx106-elf/bin/../lib/gcc/xtensa-lx106-elf/4.8.2\libgcc.a(_muldi3.o)
 .debug_frame   0x0000000000000408       0x20 c:/sviluppo/esp8266/sdk/xtensa-lx106-elf/bin/../lib/gcc/xtensa-lx106-elf/4.8.2\libgcc.a(_popcountsi2.o)
 .debug_frame   0x0000000000000428       0x30 c:/sviluppo/esp8266/sdk/xtensa-lx106-elf/bin/../lib/gcc/xtensa-lx106-elf/4.8.2\libgcc.a(_divdi3.o)
 .debug_frame   0x0000000000000458       0x30 c:/sviluppo/esp8266/sdk/xtensa-lx106-elf/bin/../lib/gcc/xtensa-lx106-elf/4.8.2\libgcc.a(_umoddi3.o)

.debug_loc      0x0000000000000000     0x27ad
 .debug_loc     0x0000000000000000      0x816 libuser.a(user_main.o)
 .debug_loc     0x0000000000000816      0x3e5 libuser.a(fdvserial.o)
 .debug_loc     0x0000000000000bfb       0x21 libuser.a(fdvsync.o)
 .debug_loc     0x0000000000000c1c       0x84 libuser.a(fdvutils.o)
 .debug_loc     0x0000000000000ca0       0xac c:/sviluppo/esp8266/sdk/xtensa-lx106-elf/bin/../lib/gcc/xtensa-lx106-elf/4.8.2/../../../../xtensa-lx106-elf/lib\libcirom.a(lib_a-bzero.o)
 .debug_loc     0x0000000000000d4c       0xe9 c:/sviluppo/esp8266/sdk/xtensa-lx106-elf/bin/../lib/gcc/xtensa-lx106-elf/4.8.2/../../../../xtensa-lx106-elf/lib\libcirom.a(lib_a-memcmp.o)
 .debug_loc     0x0000000000000e35      0x2e1 c:/sviluppo/esp8266/sdk/xtensa-lx106-elf/bin/../lib/gcc/xtensa-lx106-elf/4.8.2/../../../../xtensa-lx106-elf/lib\libcirom.a(lib_a-strncmp.o)
 .debug_loc     0x0000000000001116       0x50 c:/sviluppo/esp8266/sdk/xtensa-lx106-elf/bin/../lib/gcc/xtensa-lx106-elf/4.8.2\libgcc.a(_muldi3.o)
 .debug_loc     0x0000000000001166       0x77 c:/sviluppo/esp8266/sdk/xtensa-lx106-elf/bin/../lib/gcc/xtensa-lx106-elf/4.8.2\libgcc.a(_popcountsi2.o)
 .debug_loc     0x00000000000011dd      0xb8b c:/sviluppo/esp8266/sdk/xtensa-lx106-elf/bin/../lib/gcc/xtensa-lx106-elf/4.8.2\libgcc.a(_divdi3.o)
 .debug_loc     0x0000000000001d68      0xa45 c:/sviluppo/esp8266/sdk/xtensa-lx106-elf/bin/../lib/gcc/xtensa-lx106-elf/4.8.2\libgcc.a(_umoddi3.o)

.debug_str      0x0000000000000000     0x114c
 .debug_str     0x0000000000000000      0x922 libuser.a(user_main.o)
                                        0x9ce (size before relaxing)
 .debug_str     0x0000000000000922      0x306 libuser.a(fdvserial.o)
                                        0x7d8 (size before relaxing)
 .debug_str     0x0000000000000c28      0x105 libuser.a(fdvsync.o)
                                        0x2ee (size before relaxing)
 .debug_str     0x0000000000000d2d       0xac libuser.a(fdvutils.o)
                                        0x20b (size before relaxing)
 .debug_str     0x0000000000000dd9       0x30 libuser.a(fdvflash.o)
                                        0x2dc (size before relaxing)
 .debug_str     0x0000000000000e09       0xb7 c:/sviluppo/esp8266/sdk/xtensa-lx106-elf/bin/../lib/gcc/xtensa-lx106-elf/4.8.2/../../../../xtensa-lx106-elf/lib\libcirom.a(lib_a-bzero.o)
                                        0x150 (size before relaxing)
 .debug_str     0x0000000000000ec0       0x32 c:/sviluppo/esp8266/sdk/xtensa-lx106-elf/bin/../lib/gcc/xtensa-lx106-elf/4.8.2/../../../../xtensa-lx106-elf/lib\libcirom.a(lib_a-memcmp.o)
                                        0x14b (size before relaxing)
 .debug_str     0x0000000000000ef2       0x34 c:/sviluppo/esp8266/sdk/xtensa-lx106-elf/bin/../lib/gcc/xtensa-lx106-elf/4.8.2/../../../../xtensa-lx106-elf/lib\libcirom.a(lib_a-strncmp.o)
                                        0x14d (size before relaxing)
 .debug_str     0x0000000000000f26      0x130 c:/sviluppo/esp8266/sdk/xtensa-lx106-elf/bin/../lib/gcc/xtensa-lx106-elf/4.8.2\libgcc.a(_muldi3.o)
                                        0x1b4 (size before relaxing)
 .debug_str     0x0000000000001056       0x25 c:/sviluppo/esp8266/sdk/xtensa-lx106-elf/bin/../lib/gcc/xtensa-lx106-elf/4.8.2\libgcc.a(_popcountsi2.o)
                                        0x195 (size before relaxing)
 .debug_str     0x000000000000107b       0xc7 c:/sviluppo/esp8266/sdk/xtensa-lx106-elf/bin/../lib/gcc/xtensa-lx106-elf/4.8.2\libgcc.a(_divdi3.o)
                                        0x20a (size before relaxing)
 .debug_str     0x0000000000001142        0xa c:/sviluppo/esp8266/sdk/xtensa-lx106-elf/bin/../lib/gcc/xtensa-lx106-elf/4.8.2\libgcc.a(_umoddi3.o)
                                        0x20b (size before relaxing)
 .debug_str     0x0000000000000000      0x17f c:/sviluppo/esp8266/sdk/xtensa-lx106-elf/bin/../lib/gcc/xtensa-lx106-elf/4.8.2\libgcc.a(_popcount_tab.o)
